ARM GAS  C:\Users\LOCALA~1\AppData\Local\Temp\ccr8DDS5.s 			page 1


   1              		.syntax unified
   2              		.cpu cortex-m0
   3              		.fpu softvfp
   4              		.eabi_attribute 20, 1
   5              		.eabi_attribute 21, 1
   6              		.eabi_attribute 23, 3
   7              		.eabi_attribute 24, 1
   8              		.eabi_attribute 25, 1
   9              		.eabi_attribute 26, 1
  10              		.eabi_attribute 30, 6
  11              		.eabi_attribute 34, 0
  12              		.eabi_attribute 18, 4
  13              		.thumb
  14              		.syntax unified
  15              		.file	"main.c"
  16              		.text
  17              	.Ltext0:
  18              		.cfi_sections	.debug_frame
  19              		.comm	msCount,4,4
  20              		.global	intSW
  21              		.bss
  22              		.align	2
  23              		.type	intSW, %object
  24              		.size	intSW, 24
  25              	intSW:
  26 0000 00000000 		.space	24
  26      00000000 
  26      00000000 
  26      00000000 
  26      00000000 
  27              		.global	boSW
  28              		.align	2
  29              		.type	boSW, %object
  30              		.size	boSW, 6
  31              	boSW:
  32 0018 00000000 		.space	6
  32      0000
  33              		.global	boUART
  34 001e 0000     		.align	2
  35              		.type	boUART, %object
  36              		.size	boUART, 6
  37              	boUART:
  38 0020 00000000 		.space	6
  38      0000
  39              		.section	.text.GPIO0IsrHandler,"ax",%progbits
  40              		.align	2
  41              		.global	GPIO0IsrHandler
  42              		.code	16
  43              		.thumb_func
  44              		.type	GPIO0IsrHandler, %function
  45              	GPIO0IsrHandler:
  46              	.LFB35:
  47              		.file 1 "main.c"
   1:main.c        **** #include <project.h>
   2:main.c        **** #include <stdio.h>
   3:main.c        **** #include <stdbool.h>
   4:main.c        **** #include <string.h>
ARM GAS  C:\Users\LOCALA~1\AppData\Local\Temp\ccr8DDS5.s 			page 2


   5:main.c        **** #include <stdlib.h>
   6:main.c        **** 
   7:main.c        **** #define DEFAULT_PRIORITY (3u)
   8:main.c        **** #define LIGHT_OFF (0u)
   9:main.c        **** #define LIGHT_ON (1u)
  10:main.c        **** #define EOM_CR 0x0D // message separator char (\r)
  11:main.c        **** #define EOM_LF 0x0A // message separator char (\n)
  12:main.c        **** 
  13:main.c        **** /* Global Variables */
  14:main.c        **** uint32 msCount;
  15:main.c        **** volatile uint32 intSW[6] = {0};
  16:main.c        **** volatile bool boSW[6] = {false};
  17:main.c        **** volatile bool boUART[6] = {false};
  18:main.c        **** 
  19:main.c        **** /* Function Prototypes */
  20:main.c        **** void SysTickISRCallback(void);
  21:main.c        **** void HandleSwitch(uint8 switchIndex, char* buffer, char* time);
  22:main.c        **** 
  23:main.c        **** CY_ISR(GPIO0IsrHandler) {     
  48              		.loc 1 23 0
  49              		.cfi_startproc
  50              		@ args = 0, pretend = 0, frame = 0
  51              		@ frame_needed = 1, uses_anonymous_args = 0
  52 0000 80B5     		push	{r7, lr}
  53              		.cfi_def_cfa_offset 8
  54              		.cfi_offset 7, -8
  55              		.cfi_offset 14, -4
  56 0002 00AF     		add	r7, sp, #0
  57              		.cfi_def_cfa_register 7
  24:main.c        ****     /* Clear pending Interrupt */
  25:main.c        ****     isr_GPIO_0_ClearPending();
  58              		.loc 1 25 0
  59 0004 FFF7FEFF 		bl	isr_GPIO_0_ClearPending
  26:main.c        ****     
  27:main.c        ****     /* Clear pin Interrupt */
  28:main.c        ****     SW0_ClearInterrupt();
  60              		.loc 1 28 0
  61 0008 FFF7FEFF 		bl	SW0_ClearInterrupt
  29:main.c        **** 
  30:main.c        ****     intSW[0] = msCount;
  62              		.loc 1 30 0
  63 000c 044B     		ldr	r3, .L2
  64 000e 1A68     		ldr	r2, [r3]
  65 0010 044B     		ldr	r3, .L2+4
  66 0012 1A60     		str	r2, [r3]
  31:main.c        ****     boSW[0] = true; 
  67              		.loc 1 31 0
  68 0014 044B     		ldr	r3, .L2+8
  69 0016 0122     		movs	r2, #1
  70 0018 1A70     		strb	r2, [r3]
  32:main.c        **** }
  71              		.loc 1 32 0
  72 001a C046     		nop
  73 001c BD46     		mov	sp, r7
  74              		@ sp needed
  75 001e 80BD     		pop	{r7, pc}
  76              	.L3:
ARM GAS  C:\Users\LOCALA~1\AppData\Local\Temp\ccr8DDS5.s 			page 3


  77              		.align	2
  78              	.L2:
  79 0020 00000000 		.word	msCount
  80 0024 00000000 		.word	intSW
  81 0028 00000000 		.word	boSW
  82              		.cfi_endproc
  83              	.LFE35:
  84              		.size	GPIO0IsrHandler, .-GPIO0IsrHandler
  85              		.section	.text.GPIO1IsrHandler,"ax",%progbits
  86              		.align	2
  87              		.global	GPIO1IsrHandler
  88              		.code	16
  89              		.thumb_func
  90              		.type	GPIO1IsrHandler, %function
  91              	GPIO1IsrHandler:
  92              	.LFB36:
  33:main.c        **** CY_ISR(GPIO1IsrHandler) {     
  93              		.loc 1 33 0
  94              		.cfi_startproc
  95              		@ args = 0, pretend = 0, frame = 0
  96              		@ frame_needed = 1, uses_anonymous_args = 0
  97 0000 80B5     		push	{r7, lr}
  98              		.cfi_def_cfa_offset 8
  99              		.cfi_offset 7, -8
 100              		.cfi_offset 14, -4
 101 0002 00AF     		add	r7, sp, #0
 102              		.cfi_def_cfa_register 7
  34:main.c        ****     /* Clear pending Interrupt */
  35:main.c        ****     isr_GPIO_1_ClearPending();
 103              		.loc 1 35 0
 104 0004 FFF7FEFF 		bl	isr_GPIO_1_ClearPending
  36:main.c        ****     
  37:main.c        ****     /* Clear pin Interrupt */
  38:main.c        ****     SW1_ClearInterrupt();
 105              		.loc 1 38 0
 106 0008 FFF7FEFF 		bl	SW1_ClearInterrupt
  39:main.c        **** 
  40:main.c        ****     intSW[1] = msCount;
 107              		.loc 1 40 0
 108 000c 044B     		ldr	r3, .L5
 109 000e 1A68     		ldr	r2, [r3]
 110 0010 044B     		ldr	r3, .L5+4
 111 0012 5A60     		str	r2, [r3, #4]
  41:main.c        ****     boSW[1] = true;  
 112              		.loc 1 41 0
 113 0014 044B     		ldr	r3, .L5+8
 114 0016 0122     		movs	r2, #1
 115 0018 5A70     		strb	r2, [r3, #1]
  42:main.c        **** }
 116              		.loc 1 42 0
 117 001a C046     		nop
 118 001c BD46     		mov	sp, r7
 119              		@ sp needed
 120 001e 80BD     		pop	{r7, pc}
 121              	.L6:
 122              		.align	2
 123              	.L5:
ARM GAS  C:\Users\LOCALA~1\AppData\Local\Temp\ccr8DDS5.s 			page 4


 124 0020 00000000 		.word	msCount
 125 0024 00000000 		.word	intSW
 126 0028 00000000 		.word	boSW
 127              		.cfi_endproc
 128              	.LFE36:
 129              		.size	GPIO1IsrHandler, .-GPIO1IsrHandler
 130              		.section	.text.GPIO2IsrHandler,"ax",%progbits
 131              		.align	2
 132              		.global	GPIO2IsrHandler
 133              		.code	16
 134              		.thumb_func
 135              		.type	GPIO2IsrHandler, %function
 136              	GPIO2IsrHandler:
 137              	.LFB37:
  43:main.c        **** CY_ISR(GPIO2IsrHandler) {     
 138              		.loc 1 43 0
 139              		.cfi_startproc
 140              		@ args = 0, pretend = 0, frame = 0
 141              		@ frame_needed = 1, uses_anonymous_args = 0
 142 0000 80B5     		push	{r7, lr}
 143              		.cfi_def_cfa_offset 8
 144              		.cfi_offset 7, -8
 145              		.cfi_offset 14, -4
 146 0002 00AF     		add	r7, sp, #0
 147              		.cfi_def_cfa_register 7
  44:main.c        ****     /* Clear pending Interrupt */
  45:main.c        ****     isr_GPIO_2_ClearPending();
 148              		.loc 1 45 0
 149 0004 FFF7FEFF 		bl	isr_GPIO_2_ClearPending
  46:main.c        ****     
  47:main.c        ****     /* Clear pin Interrupt */
  48:main.c        ****     SW2_ClearInterrupt();
 150              		.loc 1 48 0
 151 0008 FFF7FEFF 		bl	SW2_ClearInterrupt
  49:main.c        **** 
  50:main.c        ****     intSW[2] = msCount;
 152              		.loc 1 50 0
 153 000c 044B     		ldr	r3, .L8
 154 000e 1A68     		ldr	r2, [r3]
 155 0010 044B     		ldr	r3, .L8+4
 156 0012 9A60     		str	r2, [r3, #8]
  51:main.c        ****     boSW[2] = true;  
 157              		.loc 1 51 0
 158 0014 044B     		ldr	r3, .L8+8
 159 0016 0122     		movs	r2, #1
 160 0018 9A70     		strb	r2, [r3, #2]
  52:main.c        **** }
 161              		.loc 1 52 0
 162 001a C046     		nop
 163 001c BD46     		mov	sp, r7
 164              		@ sp needed
 165 001e 80BD     		pop	{r7, pc}
 166              	.L9:
 167              		.align	2
 168              	.L8:
 169 0020 00000000 		.word	msCount
 170 0024 00000000 		.word	intSW
ARM GAS  C:\Users\LOCALA~1\AppData\Local\Temp\ccr8DDS5.s 			page 5


 171 0028 00000000 		.word	boSW
 172              		.cfi_endproc
 173              	.LFE37:
 174              		.size	GPIO2IsrHandler, .-GPIO2IsrHandler
 175              		.section	.text.GPIO3IsrHandler,"ax",%progbits
 176              		.align	2
 177              		.global	GPIO3IsrHandler
 178              		.code	16
 179              		.thumb_func
 180              		.type	GPIO3IsrHandler, %function
 181              	GPIO3IsrHandler:
 182              	.LFB38:
  53:main.c        **** CY_ISR(GPIO3IsrHandler) {     
 183              		.loc 1 53 0
 184              		.cfi_startproc
 185              		@ args = 0, pretend = 0, frame = 0
 186              		@ frame_needed = 1, uses_anonymous_args = 0
 187 0000 80B5     		push	{r7, lr}
 188              		.cfi_def_cfa_offset 8
 189              		.cfi_offset 7, -8
 190              		.cfi_offset 14, -4
 191 0002 00AF     		add	r7, sp, #0
 192              		.cfi_def_cfa_register 7
  54:main.c        ****     /* Clear pending Interrupt */
  55:main.c        ****     isr_GPIO_3_ClearPending();
 193              		.loc 1 55 0
 194 0004 FFF7FEFF 		bl	isr_GPIO_3_ClearPending
  56:main.c        ****     
  57:main.c        ****     /* Clear pin Interrupt */
  58:main.c        ****     SW3_ClearInterrupt();
 195              		.loc 1 58 0
 196 0008 FFF7FEFF 		bl	SW3_ClearInterrupt
  59:main.c        **** 
  60:main.c        ****     intSW[3] = msCount;
 197              		.loc 1 60 0
 198 000c 044B     		ldr	r3, .L11
 199 000e 1A68     		ldr	r2, [r3]
 200 0010 044B     		ldr	r3, .L11+4
 201 0012 DA60     		str	r2, [r3, #12]
  61:main.c        ****     boSW[3] = true;   
 202              		.loc 1 61 0
 203 0014 044B     		ldr	r3, .L11+8
 204 0016 0122     		movs	r2, #1
 205 0018 DA70     		strb	r2, [r3, #3]
  62:main.c        **** }
 206              		.loc 1 62 0
 207 001a C046     		nop
 208 001c BD46     		mov	sp, r7
 209              		@ sp needed
 210 001e 80BD     		pop	{r7, pc}
 211              	.L12:
 212              		.align	2
 213              	.L11:
 214 0020 00000000 		.word	msCount
 215 0024 00000000 		.word	intSW
 216 0028 00000000 		.word	boSW
 217              		.cfi_endproc
ARM GAS  C:\Users\LOCALA~1\AppData\Local\Temp\ccr8DDS5.s 			page 6


 218              	.LFE38:
 219              		.size	GPIO3IsrHandler, .-GPIO3IsrHandler
 220              		.section	.text.GPIO4IsrHandler,"ax",%progbits
 221              		.align	2
 222              		.global	GPIO4IsrHandler
 223              		.code	16
 224              		.thumb_func
 225              		.type	GPIO4IsrHandler, %function
 226              	GPIO4IsrHandler:
 227              	.LFB39:
  63:main.c        **** CY_ISR(GPIO4IsrHandler) {     
 228              		.loc 1 63 0
 229              		.cfi_startproc
 230              		@ args = 0, pretend = 0, frame = 0
 231              		@ frame_needed = 1, uses_anonymous_args = 0
 232 0000 80B5     		push	{r7, lr}
 233              		.cfi_def_cfa_offset 8
 234              		.cfi_offset 7, -8
 235              		.cfi_offset 14, -4
 236 0002 00AF     		add	r7, sp, #0
 237              		.cfi_def_cfa_register 7
  64:main.c        ****     /* Clear pending Interrupt */
  65:main.c        ****     isr_GPIO_4_ClearPending();
 238              		.loc 1 65 0
 239 0004 FFF7FEFF 		bl	isr_GPIO_4_ClearPending
  66:main.c        ****     
  67:main.c        ****     /* Clear pin Interrupt */
  68:main.c        ****     SW4_ClearInterrupt();
 240              		.loc 1 68 0
 241 0008 FFF7FEFF 		bl	SW4_ClearInterrupt
  69:main.c        **** 
  70:main.c        ****     intSW[4] = msCount;
 242              		.loc 1 70 0
 243 000c 044B     		ldr	r3, .L14
 244 000e 1A68     		ldr	r2, [r3]
 245 0010 044B     		ldr	r3, .L14+4
 246 0012 1A61     		str	r2, [r3, #16]
  71:main.c        ****     boSW[4] = true;   
 247              		.loc 1 71 0
 248 0014 044B     		ldr	r3, .L14+8
 249 0016 0122     		movs	r2, #1
 250 0018 1A71     		strb	r2, [r3, #4]
  72:main.c        **** }
 251              		.loc 1 72 0
 252 001a C046     		nop
 253 001c BD46     		mov	sp, r7
 254              		@ sp needed
 255 001e 80BD     		pop	{r7, pc}
 256              	.L15:
 257              		.align	2
 258              	.L14:
 259 0020 00000000 		.word	msCount
 260 0024 00000000 		.word	intSW
 261 0028 00000000 		.word	boSW
 262              		.cfi_endproc
 263              	.LFE39:
 264              		.size	GPIO4IsrHandler, .-GPIO4IsrHandler
ARM GAS  C:\Users\LOCALA~1\AppData\Local\Temp\ccr8DDS5.s 			page 7


 265              		.section	.text.GPIO5IsrHandler,"ax",%progbits
 266              		.align	2
 267              		.global	GPIO5IsrHandler
 268              		.code	16
 269              		.thumb_func
 270              		.type	GPIO5IsrHandler, %function
 271              	GPIO5IsrHandler:
 272              	.LFB40:
  73:main.c        **** CY_ISR(GPIO5IsrHandler) {     /* Clear pending Interrupt */
 273              		.loc 1 73 0
 274              		.cfi_startproc
 275              		@ args = 0, pretend = 0, frame = 0
 276              		@ frame_needed = 1, uses_anonymous_args = 0
 277 0000 80B5     		push	{r7, lr}
 278              		.cfi_def_cfa_offset 8
 279              		.cfi_offset 7, -8
 280              		.cfi_offset 14, -4
 281 0002 00AF     		add	r7, sp, #0
 282              		.cfi_def_cfa_register 7
  74:main.c        ****     isr_GPIO_5_ClearPending();
 283              		.loc 1 74 0
 284 0004 FFF7FEFF 		bl	isr_GPIO_5_ClearPending
  75:main.c        ****     
  76:main.c        ****     /* Clear pin Interrupt */
  77:main.c        ****     SW5_ClearInterrupt();
 285              		.loc 1 77 0
 286 0008 FFF7FEFF 		bl	SW5_ClearInterrupt
  78:main.c        **** 
  79:main.c        ****     intSW[5] = msCount;
 287              		.loc 1 79 0
 288 000c 044B     		ldr	r3, .L17
 289 000e 1A68     		ldr	r2, [r3]
 290 0010 044B     		ldr	r3, .L17+4
 291 0012 5A61     		str	r2, [r3, #20]
  80:main.c        ****     boSW[5] = true;   
 292              		.loc 1 80 0
 293 0014 044B     		ldr	r3, .L17+8
 294 0016 0122     		movs	r2, #1
 295 0018 5A71     		strb	r2, [r3, #5]
  81:main.c        **** }
 296              		.loc 1 81 0
 297 001a C046     		nop
 298 001c BD46     		mov	sp, r7
 299              		@ sp needed
 300 001e 80BD     		pop	{r7, pc}
 301              	.L18:
 302              		.align	2
 303              	.L17:
 304 0020 00000000 		.word	msCount
 305 0024 00000000 		.word	intSW
 306 0028 00000000 		.word	boSW
 307              		.cfi_endproc
 308              	.LFE40:
 309              		.size	GPIO5IsrHandler, .-GPIO5IsrHandler
 310              		.section	.rodata
 311              		.align	2
 312              	.LC26:
ARM GAS  C:\Users\LOCALA~1\AppData\Local\Temp\ccr8DDS5.s 			page 8


 313 0000 4265654D 		.ascii	"BeeMill 2V0\015\012\000"
 313      696C6C20 
 313      3256300D 
 313      0A00
 314 000e 0000     		.align	2
 315              	.LC28:
 316 0010 73746172 		.ascii	"start\000"
 316      7400
 317 0016 0000     		.align	2
 318              	.LC30:
 319 0018 73746F70 		.ascii	"stop\000"
 319      00
 320              		.section	.text.main,"ax",%progbits
 321              		.align	2
 322              		.global	main
 323              		.code	16
 324              		.thumb_func
 325              		.type	main, %function
 326              	main:
 327              	.LFB41:
  82:main.c        **** 
  83:main.c        **** int main()
  84:main.c        **** {
 328              		.loc 1 84 0
 329              		.cfi_startproc
 330              		@ args = 0, pretend = 0, frame = 192
 331              		@ frame_needed = 1, uses_anonymous_args = 0
 332 0000 F0B5     		push	{r4, r5, r6, r7, lr}
 333              		.cfi_def_cfa_offset 20
 334              		.cfi_offset 4, -20
 335              		.cfi_offset 5, -16
 336              		.cfi_offset 6, -12
 337              		.cfi_offset 7, -8
 338              		.cfi_offset 14, -4
 339 0002 B1B0     		sub	sp, sp, #196
 340              		.cfi_def_cfa_offset 216
 341 0004 00AF     		add	r7, sp, #0
 342              		.cfi_def_cfa_register 7
  85:main.c        ****     char time[16u];
  86:main.c        ****     char buffer[128u];
  87:main.c        ****     uint32 byte, i;
  88:main.c        ****     bool boCRLF;
  89:main.c        ****     bool boStart;
  90:main.c        ****     
  91:main.c        ****     const int RxBufferSize = 128;
 343              		.loc 1 91 0
 344 0006 8020     		movs	r0, #128
 345 0008 9C23     		movs	r3, #156
 346 000a 1024     		movs	r4, #16
 347 000c A446     		mov	ip, r4
 348 000e BC44     		add	ip, ip, r7
 349 0010 6344     		add	r3, r3, ip
 350 0012 1860     		str	r0, [r3]
  92:main.c        ****     char RxBuffer[RxBufferSize];
 351              		.loc 1 92 0
 352 0014 9C23     		movs	r3, #156
 353 0016 1020     		movs	r0, #16
ARM GAS  C:\Users\LOCALA~1\AppData\Local\Temp\ccr8DDS5.s 			page 9


 354 0018 8446     		mov	ip, r0
 355 001a BC44     		add	ip, ip, r7
 356 001c 6344     		add	r3, r3, ip
 357 001e 1868     		ldr	r0, [r3]
 358 0020 0138     		subs	r0, r0, #1
 359 0022 9823     		movs	r3, #152
 360 0024 1024     		movs	r4, #16
 361 0026 A446     		mov	ip, r4
 362 0028 BC44     		add	ip, ip, r7
 363 002a 6344     		add	r3, r3, ip
 364 002c 1860     		str	r0, [r3]
 365 002e 9C23     		movs	r3, #156
 366 0030 1020     		movs	r0, #16
 367 0032 8446     		mov	ip, r0
 368 0034 BC44     		add	ip, ip, r7
 369 0036 6344     		add	r3, r3, ip
 370 0038 1868     		ldr	r0, [r3]
 371 003a B860     		str	r0, [r7, #8]
 372 003c 0020     		movs	r0, #0
 373 003e F860     		str	r0, [r7, #12]
 374 0040 BB68     		ldr	r3, [r7, #8]
 375 0042 580F     		lsrs	r0, r3, #29
 376 0044 FB68     		ldr	r3, [r7, #12]
 377 0046 DA00     		lsls	r2, r3, #3
 378 0048 0243     		orrs	r2, r0
 379 004a BB68     		ldr	r3, [r7, #8]
 380 004c D900     		lsls	r1, r3, #3
 381 004e 9C23     		movs	r3, #156
 382 0050 1022     		movs	r2, #16
 383 0052 9446     		mov	ip, r2
 384 0054 BC44     		add	ip, ip, r7
 385 0056 6344     		add	r3, r3, ip
 386 0058 1A68     		ldr	r2, [r3]
 387 005a 1500     		movs	r5, r2
 388 005c 0022     		movs	r2, #0
 389 005e 1600     		movs	r6, r2
 390 0060 6A0F     		lsrs	r2, r5, #29
 391 0062 F300     		lsls	r3, r6, #3
 392 0064 7B60     		str	r3, [r7, #4]
 393 0066 7B68     		ldr	r3, [r7, #4]
 394 0068 1343     		orrs	r3, r2
 395 006a 7B60     		str	r3, [r7, #4]
 396 006c EB00     		lsls	r3, r5, #3
 397 006e 3B60     		str	r3, [r7]
 398 0070 9C23     		movs	r3, #156
 399 0072 1022     		movs	r2, #16
 400 0074 9446     		mov	ip, r2
 401 0076 BC44     		add	ip, ip, r7
 402 0078 6344     		add	r3, r3, ip
 403 007a 1B68     		ldr	r3, [r3]
 404 007c 0733     		adds	r3, r3, #7
 405 007e DB08     		lsrs	r3, r3, #3
 406 0080 DB00     		lsls	r3, r3, #3
 407 0082 6A46     		mov	r2, sp
 408 0084 D31A     		subs	r3, r2, r3
 409 0086 9D46     		mov	sp, r3
 410 0088 6B46     		mov	r3, sp
ARM GAS  C:\Users\LOCALA~1\AppData\Local\Temp\ccr8DDS5.s 			page 10


 411 008a 0033     		adds	r3, r3, #0
 412 008c 9422     		movs	r2, #148
 413 008e 1021     		movs	r1, #16
 414 0090 8C46     		mov	ip, r1
 415 0092 BC44     		add	ip, ip, r7
 416 0094 6244     		add	r2, r2, ip
 417 0096 1360     		str	r3, [r2]
  93:main.c        ****     char *RxWriteIndex = RxBuffer;
 418              		.loc 1 93 0
 419 0098 9423     		movs	r3, #148
 420 009a 1022     		movs	r2, #16
 421 009c 9446     		mov	ip, r2
 422 009e BC44     		add	ip, ip, r7
 423 00a0 6344     		add	r3, r3, ip
 424 00a2 1B68     		ldr	r3, [r3]
 425 00a4 A022     		movs	r2, #160
 426 00a6 1021     		movs	r1, #16
 427 00a8 8C46     		mov	ip, r1
 428 00aa BC44     		add	ip, ip, r7
 429 00ac 6244     		add	r2, r2, ip
 430 00ae 1360     		str	r3, [r2]
  94:main.c        ****     
  95:main.c        ****     boCRLF = false;
 431              		.loc 1 95 0
 432 00b0 A723     		movs	r3, #167
 433 00b2 1022     		movs	r2, #16
 434 00b4 9446     		mov	ip, r2
 435 00b6 BC44     		add	ip, ip, r7
 436 00b8 6344     		add	r3, r3, ip
 437 00ba 0022     		movs	r2, #0
 438 00bc 1A70     		strb	r2, [r3]
  96:main.c        ****     boStart = false;
 439              		.loc 1 96 0
 440 00be A623     		movs	r3, #166
 441 00c0 1022     		movs	r2, #16
 442 00c2 9446     		mov	ip, r2
 443 00c4 BC44     		add	ip, ip, r7
 444 00c6 6344     		add	r3, r3, ip
 445 00c8 0022     		movs	r2, #0
 446 00ca 1A70     		strb	r2, [r3]
  97:main.c        ****     
  98:main.c        ****     msCount = 0u;
 447              		.loc 1 98 0
 448 00cc CA4B     		ldr	r3, .L35
 449 00ce 0022     		movs	r2, #0
 450 00d0 1A60     		str	r2, [r3]
  99:main.c        **** 
 100:main.c        ****     /* Initialize interrupts and set priorities */
 101:main.c        ****     isr_GPIO_0_StartEx(GPIO0IsrHandler);
 451              		.loc 1 101 0
 452 00d2 CA4B     		ldr	r3, .L35+4
 453 00d4 1800     		movs	r0, r3
 454 00d6 FFF7FEFF 		bl	isr_GPIO_0_StartEx
 102:main.c        ****     isr_GPIO_1_StartEx(GPIO1IsrHandler);
 455              		.loc 1 102 0
 456 00da C94B     		ldr	r3, .L35+8
 457 00dc 1800     		movs	r0, r3
ARM GAS  C:\Users\LOCALA~1\AppData\Local\Temp\ccr8DDS5.s 			page 11


 458 00de FFF7FEFF 		bl	isr_GPIO_1_StartEx
 103:main.c        ****     isr_GPIO_2_StartEx(GPIO2IsrHandler);
 459              		.loc 1 103 0
 460 00e2 C84B     		ldr	r3, .L35+12
 461 00e4 1800     		movs	r0, r3
 462 00e6 FFF7FEFF 		bl	isr_GPIO_2_StartEx
 104:main.c        ****     isr_GPIO_3_StartEx(GPIO3IsrHandler);
 463              		.loc 1 104 0
 464 00ea C74B     		ldr	r3, .L35+16
 465 00ec 1800     		movs	r0, r3
 466 00ee FFF7FEFF 		bl	isr_GPIO_3_StartEx
 105:main.c        ****     isr_GPIO_4_StartEx(GPIO4IsrHandler);
 467              		.loc 1 105 0
 468 00f2 C64B     		ldr	r3, .L35+20
 469 00f4 1800     		movs	r0, r3
 470 00f6 FFF7FEFF 		bl	isr_GPIO_4_StartEx
 106:main.c        ****     isr_GPIO_5_StartEx(GPIO5IsrHandler);
 471              		.loc 1 106 0
 472 00fa C54B     		ldr	r3, .L35+24
 473 00fc 1800     		movs	r0, r3
 474 00fe FFF7FEFF 		bl	isr_GPIO_5_StartEx
 107:main.c        **** 
 108:main.c        ****     isr_GPIO_0_SetPriority(DEFAULT_PRIORITY);
 475              		.loc 1 108 0
 476 0102 0320     		movs	r0, #3
 477 0104 FFF7FEFF 		bl	isr_GPIO_0_SetPriority
 109:main.c        ****     isr_GPIO_1_SetPriority(DEFAULT_PRIORITY);
 478              		.loc 1 109 0
 479 0108 0320     		movs	r0, #3
 480 010a FFF7FEFF 		bl	isr_GPIO_1_SetPriority
 110:main.c        ****     isr_GPIO_2_SetPriority(DEFAULT_PRIORITY);
 481              		.loc 1 110 0
 482 010e 0320     		movs	r0, #3
 483 0110 FFF7FEFF 		bl	isr_GPIO_2_SetPriority
 111:main.c        ****     isr_GPIO_3_SetPriority(DEFAULT_PRIORITY);
 484              		.loc 1 111 0
 485 0114 0320     		movs	r0, #3
 486 0116 FFF7FEFF 		bl	isr_GPIO_3_SetPriority
 112:main.c        ****     isr_GPIO_4_SetPriority(DEFAULT_PRIORITY);
 487              		.loc 1 112 0
 488 011a 0320     		movs	r0, #3
 489 011c FFF7FEFF 		bl	isr_GPIO_4_SetPriority
 113:main.c        ****     isr_GPIO_5_SetPriority(DEFAULT_PRIORITY);
 490              		.loc 1 113 0
 491 0120 0320     		movs	r0, #3
 492 0122 FFF7FEFF 		bl	isr_GPIO_5_SetPriority
 114:main.c        **** 
 115:main.c        ****     CyGlobalIntEnable;
 493              		.loc 1 115 0
 494              		.syntax divided
 495              	@ 115 "main.c" 1
 496 0126 62B6     		CPSIE   i
 497              	@ 0 "" 2
 116:main.c        ****     
 117:main.c        ****     LED_Write(LIGHT_OFF);
 498              		.loc 1 117 0
 499              		.thumb
ARM GAS  C:\Users\LOCALA~1\AppData\Local\Temp\ccr8DDS5.s 			page 12


 500              		.syntax unified
 501 0128 0020     		movs	r0, #0
 502 012a FFF7FEFF 		bl	LED_Write
 118:main.c        ****     UART_Start();
 503              		.loc 1 118 0
 504 012e FFF7FEFF 		bl	UART_Start
 119:main.c        **** 
 120:main.c        ****     CySysTickInit();
 505              		.loc 1 120 0
 506 0132 FFF7FEFF 		bl	CySysTickInit
 121:main.c        ****     
 122:main.c        ****     for (i = 0u; i < CY_SYS_SYST_NUM_OF_CALLBACKS; ++i)
 507              		.loc 1 122 0
 508 0136 0023     		movs	r3, #0
 509 0138 A822     		movs	r2, #168
 510 013a 1021     		movs	r1, #16
 511 013c 8C46     		mov	ip, r1
 512 013e BC44     		add	ip, ip, r7
 513 0140 6244     		add	r2, r2, ip
 514 0142 1360     		str	r3, [r2]
 515 0144 23E0     		b	.L20
 516              	.L23:
 123:main.c        ****     {
 124:main.c        ****         if (CySysTickGetCallback(i) == NULL)
 517              		.loc 1 124 0
 518 0146 A823     		movs	r3, #168
 519 0148 1022     		movs	r2, #16
 520 014a 9446     		mov	ip, r2
 521 014c BC44     		add	ip, ip, r7
 522 014e 6344     		add	r3, r3, ip
 523 0150 1B68     		ldr	r3, [r3]
 524 0152 1800     		movs	r0, r3
 525 0154 FFF7FEFF 		bl	CySysTickGetCallback
 526 0158 031E     		subs	r3, r0, #0
 527 015a 0BD1     		bne	.L21
 125:main.c        ****         {
 126:main.c        ****             CySysTickSetCallback(i, SysTickISRCallback);
 528              		.loc 1 126 0
 529 015c AD4A     		ldr	r2, .L35+28
 530 015e A823     		movs	r3, #168
 531 0160 1021     		movs	r1, #16
 532 0162 8C46     		mov	ip, r1
 533 0164 BC44     		add	ip, ip, r7
 534 0166 6344     		add	r3, r3, ip
 535 0168 1B68     		ldr	r3, [r3]
 536 016a 1100     		movs	r1, r2
 537 016c 1800     		movs	r0, r3
 538 016e FFF7FEFF 		bl	CySysTickSetCallback
 127:main.c        ****             break;
 539              		.loc 1 127 0
 540 0172 14E0     		b	.L22
 541              	.L21:
 122:main.c        ****     {
 542              		.loc 1 122 0 discriminator 2
 543 0174 A823     		movs	r3, #168
 544 0176 1022     		movs	r2, #16
 545 0178 9446     		mov	ip, r2
ARM GAS  C:\Users\LOCALA~1\AppData\Local\Temp\ccr8DDS5.s 			page 13


 546 017a BC44     		add	ip, ip, r7
 547 017c 6344     		add	r3, r3, ip
 548 017e 1B68     		ldr	r3, [r3]
 549 0180 0133     		adds	r3, r3, #1
 550 0182 A822     		movs	r2, #168
 551 0184 1021     		movs	r1, #16
 552 0186 8C46     		mov	ip, r1
 553 0188 BC44     		add	ip, ip, r7
 554 018a 6244     		add	r2, r2, ip
 555 018c 1360     		str	r3, [r2]
 556              	.L20:
 122:main.c        ****     {
 557              		.loc 1 122 0 is_stmt 0 discriminator 1
 558 018e A823     		movs	r3, #168
 559 0190 1022     		movs	r2, #16
 560 0192 9446     		mov	ip, r2
 561 0194 BC44     		add	ip, ip, r7
 562 0196 6344     		add	r3, r3, ip
 563 0198 1B68     		ldr	r3, [r3]
 564 019a 042B     		cmp	r3, #4
 565 019c D3D9     		bls	.L23
 566              	.L22:
 128:main.c        ****         }
 129:main.c        ****     }
 130:main.c        **** 
 131:main.c        ****     UART_UartPutString("BeeMill 2V0\r\n");
 567              		.loc 1 131 0 is_stmt 1
 568 019e 9E4B     		ldr	r3, .L35+32
 569 01a0 1800     		movs	r0, r3
 570 01a2 FFF7FEFF 		bl	UART_UartPutString
 571              	.L34:
 132:main.c        **** 
 133:main.c        ****     for (;;)
 134:main.c        ****     {
 135:main.c        ****         while ((byte = UART_UartGetChar()) != 0)
 572              		.loc 1 135 0 discriminator 1
 573 01a6 61E0     		b	.L24
 574              	.L27:
 136:main.c        ****         {
 137:main.c        ****             if ((byte == EOM_CR) || (byte == EOM_LF))
 575              		.loc 1 137 0
 576 01a8 AC23     		movs	r3, #172
 577 01aa 1022     		movs	r2, #16
 578 01ac 9446     		mov	ip, r2
 579 01ae BC44     		add	ip, ip, r7
 580 01b0 6344     		add	r3, r3, ip
 581 01b2 1B68     		ldr	r3, [r3]
 582 01b4 0D2B     		cmp	r3, #13
 583 01b6 07D0     		beq	.L25
 584              		.loc 1 137 0 is_stmt 0 discriminator 1
 585 01b8 AC23     		movs	r3, #172
 586 01ba 1022     		movs	r2, #16
 587 01bc 9446     		mov	ip, r2
 588 01be BC44     		add	ip, ip, r7
 589 01c0 6344     		add	r3, r3, ip
 590 01c2 1B68     		ldr	r3, [r3]
 591 01c4 0A2B     		cmp	r3, #10
ARM GAS  C:\Users\LOCALA~1\AppData\Local\Temp\ccr8DDS5.s 			page 14


 592 01c6 0DD1     		bne	.L26
 593              	.L25:
 138:main.c        ****             {
 139:main.c        ****                 boCRLF = true;
 594              		.loc 1 139 0 is_stmt 1
 595 01c8 A723     		movs	r3, #167
 596 01ca 1022     		movs	r2, #16
 597 01cc 9446     		mov	ip, r2
 598 01ce BC44     		add	ip, ip, r7
 599 01d0 6344     		add	r3, r3, ip
 600 01d2 0122     		movs	r2, #1
 601 01d4 1A70     		strb	r2, [r3]
 140:main.c        ****                 byte = '\0';
 602              		.loc 1 140 0
 603 01d6 0023     		movs	r3, #0
 604 01d8 AC22     		movs	r2, #172
 605 01da 1021     		movs	r1, #16
 606 01dc 8C46     		mov	ip, r1
 607 01de BC44     		add	ip, ip, r7
 608 01e0 6244     		add	r2, r2, ip
 609 01e2 1360     		str	r3, [r2]
 610              	.L26:
 141:main.c        ****             }
 142:main.c        ****             *RxWriteIndex = byte;
 611              		.loc 1 142 0
 612 01e4 AC23     		movs	r3, #172
 613 01e6 1022     		movs	r2, #16
 614 01e8 9446     		mov	ip, r2
 615 01ea BC44     		add	ip, ip, r7
 616 01ec 6344     		add	r3, r3, ip
 617 01ee 1B68     		ldr	r3, [r3]
 618 01f0 DAB2     		uxtb	r2, r3
 619 01f2 A023     		movs	r3, #160
 620 01f4 1021     		movs	r1, #16
 621 01f6 8C46     		mov	ip, r1
 622 01f8 BC44     		add	ip, ip, r7
 623 01fa 6344     		add	r3, r3, ip
 624 01fc 1B68     		ldr	r3, [r3]
 625 01fe 1A70     		strb	r2, [r3]
 143:main.c        ****             RxWriteIndex = RxWriteIndex + 1;
 626              		.loc 1 143 0
 627 0200 A023     		movs	r3, #160
 628 0202 1022     		movs	r2, #16
 629 0204 9446     		mov	ip, r2
 630 0206 BC44     		add	ip, ip, r7
 631 0208 6344     		add	r3, r3, ip
 632 020a 1B68     		ldr	r3, [r3]
 633 020c 0133     		adds	r3, r3, #1
 634 020e A022     		movs	r2, #160
 635 0210 1021     		movs	r1, #16
 636 0212 8C46     		mov	ip, r1
 637 0214 BC44     		add	ip, ip, r7
 638 0216 6244     		add	r2, r2, ip
 639 0218 1360     		str	r3, [r2]
 144:main.c        ****             *RxWriteIndex = '\0';
 640              		.loc 1 144 0
 641 021a A023     		movs	r3, #160
ARM GAS  C:\Users\LOCALA~1\AppData\Local\Temp\ccr8DDS5.s 			page 15


 642 021c 1022     		movs	r2, #16
 643 021e 9446     		mov	ip, r2
 644 0220 BC44     		add	ip, ip, r7
 645 0222 6344     		add	r3, r3, ip
 646 0224 1B68     		ldr	r3, [r3]
 647 0226 0022     		movs	r2, #0
 648 0228 1A70     		strb	r2, [r3]
 145:main.c        ****             if (RxWriteIndex >= RxBuffer + RxBufferSize) RxWriteIndex = RxBuffer;
 649              		.loc 1 145 0
 650 022a 9423     		movs	r3, #148
 651 022c 1022     		movs	r2, #16
 652 022e 9446     		mov	ip, r2
 653 0230 BC44     		add	ip, ip, r7
 654 0232 6344     		add	r3, r3, ip
 655 0234 1A68     		ldr	r2, [r3]
 656 0236 9C23     		movs	r3, #156
 657 0238 1021     		movs	r1, #16
 658 023a 8C46     		mov	ip, r1
 659 023c BC44     		add	ip, ip, r7
 660 023e 6344     		add	r3, r3, ip
 661 0240 1B68     		ldr	r3, [r3]
 662 0242 D218     		adds	r2, r2, r3
 663 0244 A023     		movs	r3, #160
 664 0246 1021     		movs	r1, #16
 665 0248 8C46     		mov	ip, r1
 666 024a BC44     		add	ip, ip, r7
 667 024c 6344     		add	r3, r3, ip
 668 024e 1B68     		ldr	r3, [r3]
 669 0250 9A42     		cmp	r2, r3
 670 0252 0BD8     		bhi	.L24
 671              		.loc 1 145 0 is_stmt 0 discriminator 1
 672 0254 9423     		movs	r3, #148
 673 0256 1022     		movs	r2, #16
 674 0258 9446     		mov	ip, r2
 675 025a BC44     		add	ip, ip, r7
 676 025c 6344     		add	r3, r3, ip
 677 025e 1B68     		ldr	r3, [r3]
 678 0260 A022     		movs	r2, #160
 679 0262 1021     		movs	r1, #16
 680 0264 8C46     		mov	ip, r1
 681 0266 BC44     		add	ip, ip, r7
 682 0268 6244     		add	r2, r2, ip
 683 026a 1360     		str	r3, [r2]
 684              	.L24:
 135:main.c        ****         {
 685              		.loc 1 135 0 is_stmt 1
 686 026c FFF7FEFF 		bl	UART_UartGetChar
 687 0270 0300     		movs	r3, r0
 688 0272 AC22     		movs	r2, #172
 689 0274 1021     		movs	r1, #16
 690 0276 8C46     		mov	ip, r1
 691 0278 BC44     		add	ip, ip, r7
 692 027a 6244     		add	r2, r2, ip
 693 027c 1360     		str	r3, [r2]
 694 027e AC23     		movs	r3, #172
 695 0280 1022     		movs	r2, #16
 696 0282 9446     		mov	ip, r2
ARM GAS  C:\Users\LOCALA~1\AppData\Local\Temp\ccr8DDS5.s 			page 16


 697 0284 BC44     		add	ip, ip, r7
 698 0286 6344     		add	r3, r3, ip
 699 0288 1B68     		ldr	r3, [r3]
 700 028a 002B     		cmp	r3, #0
 701 028c 8CD1     		bne	.L27
 146:main.c        ****         }
 147:main.c        **** 
 148:main.c        ****         if (boCRLF)
 702              		.loc 1 148 0
 703 028e A723     		movs	r3, #167
 704 0290 1022     		movs	r2, #16
 705 0292 9446     		mov	ip, r2
 706 0294 BC44     		add	ip, ip, r7
 707 0296 6344     		add	r3, r3, ip
 708 0298 1B78     		ldrb	r3, [r3]
 709 029a 002B     		cmp	r3, #0
 710 029c 68D0     		beq	.L28
 149:main.c        ****         {
 150:main.c        ****             boCRLF = false;
 711              		.loc 1 150 0
 712 029e A723     		movs	r3, #167
 713 02a0 1022     		movs	r2, #16
 714 02a2 9446     		mov	ip, r2
 715 02a4 BC44     		add	ip, ip, r7
 716 02a6 6344     		add	r3, r3, ip
 717 02a8 0022     		movs	r2, #0
 718 02aa 1A70     		strb	r2, [r3]
 151:main.c        ****             RxWriteIndex = RxBuffer;
 719              		.loc 1 151 0
 720 02ac 9423     		movs	r3, #148
 721 02ae 1022     		movs	r2, #16
 722 02b0 9446     		mov	ip, r2
 723 02b2 BC44     		add	ip, ip, r7
 724 02b4 6344     		add	r3, r3, ip
 725 02b6 1B68     		ldr	r3, [r3]
 726 02b8 A022     		movs	r2, #160
 727 02ba 1021     		movs	r1, #16
 728 02bc 8C46     		mov	ip, r1
 729 02be BC44     		add	ip, ip, r7
 730 02c0 6244     		add	r2, r2, ip
 731 02c2 1360     		str	r3, [r2]
 152:main.c        ****             sprintf(buffer, "%s", RxBuffer);
 732              		.loc 1 152 0
 733 02c4 9423     		movs	r3, #148
 734 02c6 1022     		movs	r2, #16
 735 02c8 9446     		mov	ip, r2
 736 02ca BC44     		add	ip, ip, r7
 737 02cc 6344     		add	r3, r3, ip
 738 02ce 1A68     		ldr	r2, [r3]
 739 02d0 1423     		movs	r3, #20
 740 02d2 FB18     		adds	r3, r7, r3
 741 02d4 1100     		movs	r1, r2
 742 02d6 1800     		movs	r0, r3
 743 02d8 FFF7FEFF 		bl	strcpy
 153:main.c        **** 
 154:main.c        ****             if (strcmp("start", buffer) == 0)
 744              		.loc 1 154 0
ARM GAS  C:\Users\LOCALA~1\AppData\Local\Temp\ccr8DDS5.s 			page 17


 745 02dc 1423     		movs	r3, #20
 746 02de FA18     		adds	r2, r7, r3
 747 02e0 4E4B     		ldr	r3, .L35+36
 748 02e2 1100     		movs	r1, r2
 749 02e4 1800     		movs	r0, r3
 750 02e6 FFF7FEFF 		bl	strcmp
 751 02ea 031E     		subs	r3, r0, #0
 752 02ec 1AD1     		bne	.L29
 155:main.c        ****             {
 156:main.c        ****                 boStart = true;
 753              		.loc 1 156 0
 754 02ee A623     		movs	r3, #166
 755 02f0 1022     		movs	r2, #16
 756 02f2 9446     		mov	ip, r2
 757 02f4 BC44     		add	ip, ip, r7
 758 02f6 6344     		add	r3, r3, ip
 759 02f8 0122     		movs	r2, #1
 760 02fa 1A70     		strb	r2, [r3]
 157:main.c        ****                 msCount = 0;
 761              		.loc 1 157 0
 762 02fc 3E4B     		ldr	r3, .L35
 763 02fe 0022     		movs	r2, #0
 764 0300 1A60     		str	r2, [r3]
 158:main.c        ****                 CySysTickEnable();
 765              		.loc 1 158 0
 766 0302 FFF7FEFF 		bl	CySysTickEnable
 159:main.c        ****                 isr_GPIO_0_Enable();
 767              		.loc 1 159 0
 768 0306 FFF7FEFF 		bl	isr_GPIO_0_Enable
 160:main.c        ****                 isr_GPIO_1_Enable();
 769              		.loc 1 160 0
 770 030a FFF7FEFF 		bl	isr_GPIO_1_Enable
 161:main.c        ****                 isr_GPIO_2_Enable();
 771              		.loc 1 161 0
 772 030e FFF7FEFF 		bl	isr_GPIO_2_Enable
 162:main.c        ****                 isr_GPIO_3_Enable();
 773              		.loc 1 162 0
 774 0312 FFF7FEFF 		bl	isr_GPIO_3_Enable
 163:main.c        ****                 isr_GPIO_4_Enable();
 775              		.loc 1 163 0
 776 0316 FFF7FEFF 		bl	isr_GPIO_4_Enable
 164:main.c        ****                 isr_GPIO_5_Enable();
 777              		.loc 1 164 0
 778 031a FFF7FEFF 		bl	isr_GPIO_5_Enable
 165:main.c        ****                 LED_Write(LIGHT_ON);
 779              		.loc 1 165 0
 780 031e 0120     		movs	r0, #1
 781 0320 FFF7FEFF 		bl	LED_Write
 782              	.L29:
 166:main.c        ****             }
 167:main.c        ****             if (strcmp("stop", buffer) == 0)
 783              		.loc 1 167 0
 784 0324 1423     		movs	r3, #20
 785 0326 FA18     		adds	r2, r7, r3
 786 0328 3D4B     		ldr	r3, .L35+40
 787 032a 1100     		movs	r1, r2
 788 032c 1800     		movs	r0, r3
ARM GAS  C:\Users\LOCALA~1\AppData\Local\Temp\ccr8DDS5.s 			page 18


 789 032e FFF7FEFF 		bl	strcmp
 790 0332 031E     		subs	r3, r0, #0
 791 0334 17D1     		bne	.L30
 168:main.c        ****             {
 169:main.c        ****                 boStart = false;
 792              		.loc 1 169 0
 793 0336 A623     		movs	r3, #166
 794 0338 1022     		movs	r2, #16
 795 033a 9446     		mov	ip, r2
 796 033c BC44     		add	ip, ip, r7
 797 033e 6344     		add	r3, r3, ip
 798 0340 0022     		movs	r2, #0
 799 0342 1A70     		strb	r2, [r3]
 170:main.c        ****                 CySysTickStop();
 800              		.loc 1 170 0
 801 0344 FFF7FEFF 		bl	CySysTickStop
 171:main.c        ****                 isr_GPIO_0_Disable();
 802              		.loc 1 171 0
 803 0348 FFF7FEFF 		bl	isr_GPIO_0_Disable
 172:main.c        ****                 isr_GPIO_1_Disable();
 804              		.loc 1 172 0
 805 034c FFF7FEFF 		bl	isr_GPIO_1_Disable
 173:main.c        ****                 isr_GPIO_2_Disable();
 806              		.loc 1 173 0
 807 0350 FFF7FEFF 		bl	isr_GPIO_2_Disable
 174:main.c        ****                 isr_GPIO_3_Disable();
 808              		.loc 1 174 0
 809 0354 FFF7FEFF 		bl	isr_GPIO_3_Disable
 175:main.c        ****                 isr_GPIO_4_Disable();
 810              		.loc 1 175 0
 811 0358 FFF7FEFF 		bl	isr_GPIO_4_Disable
 176:main.c        ****                 isr_GPIO_5_Disable();
 812              		.loc 1 176 0
 813 035c FFF7FEFF 		bl	isr_GPIO_5_Disable
 177:main.c        ****                 LED_Write(LIGHT_OFF);
 814              		.loc 1 177 0
 815 0360 0020     		movs	r0, #0
 816 0362 FFF7FEFF 		bl	LED_Write
 817              	.L30:
 178:main.c        ****             }
 179:main.c        **** 
 180:main.c        ****             UART_UartPutString(buffer);
 818              		.loc 1 180 0
 819 0366 1423     		movs	r3, #20
 820 0368 FB18     		adds	r3, r7, r3
 821 036a 1800     		movs	r0, r3
 822 036c FFF7FEFF 		bl	UART_UartPutString
 823              	.L28:
 181:main.c        ****         }
 182:main.c        **** 
 183:main.c        ****         for (i = 0; i < 6; ++i)
 824              		.loc 1 183 0
 825 0370 0023     		movs	r3, #0
 826 0372 A822     		movs	r2, #168
 827 0374 1021     		movs	r1, #16
 828 0376 8C46     		mov	ip, r1
 829 0378 BC44     		add	ip, ip, r7
ARM GAS  C:\Users\LOCALA~1\AppData\Local\Temp\ccr8DDS5.s 			page 19


 830 037a 6244     		add	r2, r2, ip
 831 037c 1360     		str	r3, [r2]
 832 037e 31E0     		b	.L31
 833              	.L33:
 184:main.c        ****         {
 185:main.c        ****             if (boSW[i] && boStart)
 834              		.loc 1 185 0
 835 0380 284A     		ldr	r2, .L35+44
 836 0382 A823     		movs	r3, #168
 837 0384 1021     		movs	r1, #16
 838 0386 8C46     		mov	ip, r1
 839 0388 BC44     		add	ip, ip, r7
 840 038a 6344     		add	r3, r3, ip
 841 038c 1B68     		ldr	r3, [r3]
 842 038e D318     		adds	r3, r2, r3
 843 0390 1B78     		ldrb	r3, [r3]
 844 0392 DBB2     		uxtb	r3, r3
 845 0394 002B     		cmp	r3, #0
 846 0396 18D0     		beq	.L32
 847              		.loc 1 185 0 is_stmt 0 discriminator 1
 848 0398 A623     		movs	r3, #166
 849 039a 1022     		movs	r2, #16
 850 039c 9446     		mov	ip, r2
 851 039e BC44     		add	ip, ip, r7
 852 03a0 6344     		add	r3, r3, ip
 853 03a2 1B78     		ldrb	r3, [r3]
 854 03a4 002B     		cmp	r3, #0
 855 03a6 10D0     		beq	.L32
 186:main.c        ****             {
 187:main.c        ****                 HandleSwitch(i, buffer, time);
 856              		.loc 1 187 0 is_stmt 1
 857 03a8 A823     		movs	r3, #168
 858 03aa 1022     		movs	r2, #16
 859 03ac 9446     		mov	ip, r2
 860 03ae BC44     		add	ip, ip, r7
 861 03b0 6344     		add	r3, r3, ip
 862 03b2 1B68     		ldr	r3, [r3]
 863 03b4 DBB2     		uxtb	r3, r3
 864 03b6 8422     		movs	r2, #132
 865 03b8 1021     		movs	r1, #16
 866 03ba 8C46     		mov	ip, r1
 867 03bc BC44     		add	ip, ip, r7
 868 03be 6244     		add	r2, r2, ip
 869 03c0 1421     		movs	r1, #20
 870 03c2 7918     		adds	r1, r7, r1
 871 03c4 1800     		movs	r0, r3
 872 03c6 FFF7FEFF 		bl	HandleSwitch
 873              	.L32:
 183:main.c        ****         {
 874              		.loc 1 183 0 discriminator 2
 875 03ca A823     		movs	r3, #168
 876 03cc 1022     		movs	r2, #16
 877 03ce 9446     		mov	ip, r2
 878 03d0 BC44     		add	ip, ip, r7
 879 03d2 6344     		add	r3, r3, ip
 880 03d4 1B68     		ldr	r3, [r3]
 881 03d6 0133     		adds	r3, r3, #1
ARM GAS  C:\Users\LOCALA~1\AppData\Local\Temp\ccr8DDS5.s 			page 20


 882 03d8 A822     		movs	r2, #168
 883 03da 1021     		movs	r1, #16
 884 03dc 8C46     		mov	ip, r1
 885 03de BC44     		add	ip, ip, r7
 886 03e0 6244     		add	r2, r2, ip
 887 03e2 1360     		str	r3, [r2]
 888              	.L31:
 183:main.c        ****         {
 889              		.loc 1 183 0 is_stmt 0 discriminator 1
 890 03e4 A823     		movs	r3, #168
 891 03e6 1022     		movs	r2, #16
 892 03e8 9446     		mov	ip, r2
 893 03ea BC44     		add	ip, ip, r7
 894 03ec 6344     		add	r3, r3, ip
 895 03ee 1B68     		ldr	r3, [r3]
 896 03f0 052B     		cmp	r3, #5
 897 03f2 C5D9     		bls	.L33
 188:main.c        ****             }
 189:main.c        ****         }
 190:main.c        ****     }
 898              		.loc 1 190 0 is_stmt 1
 899 03f4 D7E6     		b	.L34
 900              	.L36:
 901 03f6 C046     		.align	2
 902              	.L35:
 903 03f8 00000000 		.word	msCount
 904 03fc 00000000 		.word	GPIO0IsrHandler
 905 0400 00000000 		.word	GPIO1IsrHandler
 906 0404 00000000 		.word	GPIO2IsrHandler
 907 0408 00000000 		.word	GPIO3IsrHandler
 908 040c 00000000 		.word	GPIO4IsrHandler
 909 0410 00000000 		.word	GPIO5IsrHandler
 910 0414 00000000 		.word	SysTickISRCallback
 911 0418 00000000 		.word	.LC26
 912 041c 10000000 		.word	.LC28
 913 0420 18000000 		.word	.LC30
 914 0424 00000000 		.word	boSW
 915              		.cfi_endproc
 916              	.LFE41:
 917              		.size	main, .-main
 918              		.section	.rodata
 919 001d 000000   		.align	2
 920              	.LC33:
 921 0020 496E7075 		.ascii	"Input%u;\000"
 921      7425753B 
 921      00
 922 0029 000000   		.align	2
 923              	.LC36:
 924 002c 256C753B 		.ascii	"%lu;\000"
 924      00
 925 0031 000000   		.align	2
 926              	.LC39:
 927 0034 25750A00 		.ascii	"%u\012\000"
 928              		.section	.text.HandleSwitch,"ax",%progbits
 929              		.align	2
 930              		.global	HandleSwitch
 931              		.code	16
ARM GAS  C:\Users\LOCALA~1\AppData\Local\Temp\ccr8DDS5.s 			page 21


 932              		.thumb_func
 933              		.type	HandleSwitch, %function
 934              	HandleSwitch:
 935              	.LFB42:
 191:main.c        **** }
 192:main.c        **** 
 193:main.c        **** void HandleSwitch(uint8 switchIndex, char* buffer, char* time)
 194:main.c        **** {
 936              		.loc 1 194 0
 937              		.cfi_startproc
 938              		@ args = 0, pretend = 0, frame = 16
 939              		@ frame_needed = 1, uses_anonymous_args = 0
 940 0000 80B5     		push	{r7, lr}
 941              		.cfi_def_cfa_offset 8
 942              		.cfi_offset 7, -8
 943              		.cfi_offset 14, -4
 944 0002 84B0     		sub	sp, sp, #16
 945              		.cfi_def_cfa_offset 24
 946 0004 00AF     		add	r7, sp, #0
 947              		.cfi_def_cfa_register 7
 948 0006 B960     		str	r1, [r7, #8]
 949 0008 7A60     		str	r2, [r7, #4]
 950 000a 0F23     		movs	r3, #15
 951 000c FB18     		adds	r3, r7, r3
 952 000e 021C     		adds	r2, r0, #0
 953 0010 1A70     		strb	r2, [r3]
 195:main.c        ****     sprintf(buffer, "Input%u;", switchIndex);
 954              		.loc 1 195 0
 955 0012 0F23     		movs	r3, #15
 956 0014 FB18     		adds	r3, r7, r3
 957 0016 1A78     		ldrb	r2, [r3]
 958 0018 4349     		ldr	r1, .L46
 959 001a BB68     		ldr	r3, [r7, #8]
 960 001c 1800     		movs	r0, r3
 961 001e FFF7FEFF 		bl	sprintf
 196:main.c        ****     UART_UartPutString(buffer);
 962              		.loc 1 196 0
 963 0022 BB68     		ldr	r3, [r7, #8]
 964 0024 1800     		movs	r0, r3
 965 0026 FFF7FEFF 		bl	UART_UartPutString
 197:main.c        **** 
 198:main.c        ****     sprintf(time, "%lu;", intSW[switchIndex]);
 966              		.loc 1 198 0
 967 002a 0F23     		movs	r3, #15
 968 002c FB18     		adds	r3, r7, r3
 969 002e 1A78     		ldrb	r2, [r3]
 970 0030 3E4B     		ldr	r3, .L46+4
 971 0032 9200     		lsls	r2, r2, #2
 972 0034 D258     		ldr	r2, [r2, r3]
 973 0036 3E49     		ldr	r1, .L46+8
 974 0038 7B68     		ldr	r3, [r7, #4]
 975 003a 1800     		movs	r0, r3
 976 003c FFF7FEFF 		bl	sprintf
 199:main.c        ****     UART_UartPutString(time);
 977              		.loc 1 199 0
 978 0040 7B68     		ldr	r3, [r7, #4]
 979 0042 1800     		movs	r0, r3
ARM GAS  C:\Users\LOCALA~1\AppData\Local\Temp\ccr8DDS5.s 			page 22


 980 0044 FFF7FEFF 		bl	UART_UartPutString
 200:main.c        **** 
 201:main.c        ****     sprintf(buffer, "%u\n", boUART[switchIndex]);
 981              		.loc 1 201 0
 982 0048 0F23     		movs	r3, #15
 983 004a FB18     		adds	r3, r7, r3
 984 004c 1B78     		ldrb	r3, [r3]
 985 004e 394A     		ldr	r2, .L46+12
 986 0050 D35C     		ldrb	r3, [r2, r3]
 987 0052 DBB2     		uxtb	r3, r3
 988 0054 1A00     		movs	r2, r3
 989 0056 3849     		ldr	r1, .L46+16
 990 0058 BB68     		ldr	r3, [r7, #8]
 991 005a 1800     		movs	r0, r3
 992 005c FFF7FEFF 		bl	sprintf
 202:main.c        ****     UART_UartPutString(buffer);
 993              		.loc 1 202 0
 994 0060 BB68     		ldr	r3, [r7, #8]
 995 0062 1800     		movs	r0, r3
 996 0064 FFF7FEFF 		bl	UART_UartPutString
 203:main.c        **** 
 204:main.c        ****     // Toggle the LED based on switch index
 205:main.c        ****     switch (switchIndex)
 997              		.loc 1 205 0
 998 0068 0F23     		movs	r3, #15
 999 006a FB18     		adds	r3, r7, r3
 1000 006c 1B78     		ldrb	r3, [r3]
 1001 006e 052B     		cmp	r3, #5
 1002 0070 3AD8     		bhi	.L38
 1003 0072 9A00     		lsls	r2, r3, #2
 1004 0074 314B     		ldr	r3, .L46+20
 1005 0076 D318     		adds	r3, r2, r3
 1006 0078 1B68     		ldr	r3, [r3]
 1007 007a 9F46     		mov	pc, r3
 1008              		.section	.rodata
 1009              		.align	2
 1010              	.L40:
 1011 0038 7C000000 		.word	.L39
 1012 003c 8E000000 		.word	.L41
 1013 0040 A0000000 		.word	.L42
 1014 0044 B2000000 		.word	.L43
 1015 0048 C4000000 		.word	.L44
 1016 004c D6000000 		.word	.L45
 1017              		.section	.text.HandleSwitch
 1018              	.L39:
 206:main.c        ****     {
 207:main.c        ****         case 0: LED_GPIO0_Write(~LED_GPIO0_Read()); break;
 1019              		.loc 1 207 0
 1020 007c FFF7FEFF 		bl	LED_GPIO0_Read
 1021 0080 0300     		movs	r3, r0
 1022 0082 DB43     		mvns	r3, r3
 1023 0084 DBB2     		uxtb	r3, r3
 1024 0086 1800     		movs	r0, r3
 1025 0088 FFF7FEFF 		bl	LED_GPIO0_Write
 1026 008c 2CE0     		b	.L38
 1027              	.L41:
 208:main.c        ****         case 1: LED_GPIO1_Write(~LED_GPIO1_Read()); break;
ARM GAS  C:\Users\LOCALA~1\AppData\Local\Temp\ccr8DDS5.s 			page 23


 1028              		.loc 1 208 0
 1029 008e FFF7FEFF 		bl	LED_GPIO1_Read
 1030 0092 0300     		movs	r3, r0
 1031 0094 DB43     		mvns	r3, r3
 1032 0096 DBB2     		uxtb	r3, r3
 1033 0098 1800     		movs	r0, r3
 1034 009a FFF7FEFF 		bl	LED_GPIO1_Write
 1035 009e 23E0     		b	.L38
 1036              	.L42:
 209:main.c        ****         case 2: LED_GPIO2_Write(~LED_GPIO2_Read()); break;
 1037              		.loc 1 209 0
 1038 00a0 FFF7FEFF 		bl	LED_GPIO2_Read
 1039 00a4 0300     		movs	r3, r0
 1040 00a6 DB43     		mvns	r3, r3
 1041 00a8 DBB2     		uxtb	r3, r3
 1042 00aa 1800     		movs	r0, r3
 1043 00ac FFF7FEFF 		bl	LED_GPIO2_Write
 1044 00b0 1AE0     		b	.L38
 1045              	.L43:
 210:main.c        ****         case 3: LED_GPIO3_Write(~LED_GPIO3_Read()); break;
 1046              		.loc 1 210 0
 1047 00b2 FFF7FEFF 		bl	LED_GPIO3_Read
 1048 00b6 0300     		movs	r3, r0
 1049 00b8 DB43     		mvns	r3, r3
 1050 00ba DBB2     		uxtb	r3, r3
 1051 00bc 1800     		movs	r0, r3
 1052 00be FFF7FEFF 		bl	LED_GPIO3_Write
 1053 00c2 11E0     		b	.L38
 1054              	.L44:
 211:main.c        ****         case 4: LED_GPIO4_Write(~LED_GPIO4_Read()); break;
 1055              		.loc 1 211 0
 1056 00c4 FFF7FEFF 		bl	LED_GPIO4_Read
 1057 00c8 0300     		movs	r3, r0
 1058 00ca DB43     		mvns	r3, r3
 1059 00cc DBB2     		uxtb	r3, r3
 1060 00ce 1800     		movs	r0, r3
 1061 00d0 FFF7FEFF 		bl	LED_GPIO4_Write
 1062 00d4 08E0     		b	.L38
 1063              	.L45:
 212:main.c        ****         case 5: LED_GPIO5_Write(~LED_GPIO5_Read()); break;
 1064              		.loc 1 212 0
 1065 00d6 FFF7FEFF 		bl	LED_GPIO5_Read
 1066 00da 0300     		movs	r3, r0
 1067 00dc DB43     		mvns	r3, r3
 1068 00de DBB2     		uxtb	r3, r3
 1069 00e0 1800     		movs	r0, r3
 1070 00e2 FFF7FEFF 		bl	LED_GPIO5_Write
 1071 00e6 C046     		nop
 1072              	.L38:
 213:main.c        ****     }
 214:main.c        **** 
 215:main.c        ****     boUART[switchIndex] = !boUART[switchIndex];
 1073              		.loc 1 215 0
 1074 00e8 0F23     		movs	r3, #15
 1075 00ea FB18     		adds	r3, r7, r3
 1076 00ec 1B78     		ldrb	r3, [r3]
 1077 00ee 0F22     		movs	r2, #15
ARM GAS  C:\Users\LOCALA~1\AppData\Local\Temp\ccr8DDS5.s 			page 24


 1078 00f0 BA18     		adds	r2, r7, r2
 1079 00f2 1278     		ldrb	r2, [r2]
 1080 00f4 0F49     		ldr	r1, .L46+12
 1081 00f6 8A5C     		ldrb	r2, [r1, r2]
 1082 00f8 D2B2     		uxtb	r2, r2
 1083 00fa 511E     		subs	r1, r2, #1
 1084 00fc 8A41     		sbcs	r2, r2, r1
 1085 00fe D2B2     		uxtb	r2, r2
 1086 0100 0121     		movs	r1, #1
 1087 0102 4A40     		eors	r2, r1
 1088 0104 D2B2     		uxtb	r2, r2
 1089 0106 111C     		adds	r1, r2, #0
 1090 0108 0122     		movs	r2, #1
 1091 010a 0A40     		ands	r2, r1
 1092 010c D1B2     		uxtb	r1, r2
 1093 010e 094A     		ldr	r2, .L46+12
 1094 0110 D154     		strb	r1, [r2, r3]
 216:main.c        ****     boSW[switchIndex] = false;
 1095              		.loc 1 216 0
 1096 0112 0F23     		movs	r3, #15
 1097 0114 FB18     		adds	r3, r7, r3
 1098 0116 1B78     		ldrb	r3, [r3]
 1099 0118 094A     		ldr	r2, .L46+24
 1100 011a 0021     		movs	r1, #0
 1101 011c D154     		strb	r1, [r2, r3]
 217:main.c        **** }
 1102              		.loc 1 217 0
 1103 011e C046     		nop
 1104 0120 BD46     		mov	sp, r7
 1105 0122 04B0     		add	sp, sp, #16
 1106              		@ sp needed
 1107 0124 80BD     		pop	{r7, pc}
 1108              	.L47:
 1109 0126 C046     		.align	2
 1110              	.L46:
 1111 0128 20000000 		.word	.LC33
 1112 012c 00000000 		.word	intSW
 1113 0130 2C000000 		.word	.LC36
 1114 0134 00000000 		.word	boUART
 1115 0138 34000000 		.word	.LC39
 1116 013c 38000000 		.word	.L40
 1117 0140 00000000 		.word	boSW
 1118              		.cfi_endproc
 1119              	.LFE42:
 1120              		.size	HandleSwitch, .-HandleSwitch
 1121              		.section	.text.SysTickISRCallback,"ax",%progbits
 1122              		.align	2
 1123              		.global	SysTickISRCallback
 1124              		.code	16
 1125              		.thumb_func
 1126              		.type	SysTickISRCallback, %function
 1127              	SysTickISRCallback:
 1128              	.LFB43:
 218:main.c        **** 
 219:main.c        **** void SysTickISRCallback(void)
 220:main.c        **** {
 1129              		.loc 1 220 0
ARM GAS  C:\Users\LOCALA~1\AppData\Local\Temp\ccr8DDS5.s 			page 25


 1130              		.cfi_startproc
 1131              		@ args = 0, pretend = 0, frame = 0
 1132              		@ frame_needed = 1, uses_anonymous_args = 0
 1133 0000 80B5     		push	{r7, lr}
 1134              		.cfi_def_cfa_offset 8
 1135              		.cfi_offset 7, -8
 1136              		.cfi_offset 14, -4
 1137 0002 00AF     		add	r7, sp, #0
 1138              		.cfi_def_cfa_register 7
 221:main.c        ****     msCount++;
 1139              		.loc 1 221 0
 1140 0004 034B     		ldr	r3, .L49
 1141 0006 1B68     		ldr	r3, [r3]
 1142 0008 5A1C     		adds	r2, r3, #1
 1143 000a 024B     		ldr	r3, .L49
 1144 000c 1A60     		str	r2, [r3]
 222:main.c        **** }
 1145              		.loc 1 222 0
 1146 000e C046     		nop
 1147 0010 BD46     		mov	sp, r7
 1148              		@ sp needed
 1149 0012 80BD     		pop	{r7, pc}
 1150              	.L50:
 1151              		.align	2
 1152              	.L49:
 1153 0014 00000000 		.word	msCount
 1154              		.cfi_endproc
 1155              	.LFE43:
 1156              		.size	SysTickISRCallback, .-SysTickISRCallback
 1157              		.text
 1158              	.Letext0:
 1159              		.file 2 "Generated_Source\\PSoC4/cytypes.h"
 1160              		.section	.debug_info,"",%progbits
 1161              	.Ldebug_info0:
 1162 0000 B5020000 		.4byte	0x2b5
 1163 0004 0400     		.2byte	0x4
 1164 0006 00000000 		.4byte	.Ldebug_abbrev0
 1165 000a 04       		.byte	0x4
 1166 000b 01       		.uleb128 0x1
 1167 000c C7000000 		.4byte	.LASF39
 1168 0010 0C       		.byte	0xc
 1169 0011 D7010000 		.4byte	.LASF40
 1170 0015 0F020000 		.4byte	.LASF41
 1171 0019 00000000 		.4byte	.Ldebug_ranges0+0
 1172 001d 00000000 		.4byte	0
 1173 0021 00000000 		.4byte	.Ldebug_line0
 1174 0025 02       		.uleb128 0x2
 1175 0026 01       		.byte	0x1
 1176 0027 06       		.byte	0x6
 1177 0028 70000000 		.4byte	.LASF0
 1178 002c 02       		.uleb128 0x2
 1179 002d 01       		.byte	0x1
 1180 002e 08       		.byte	0x8
 1181 002f 82000000 		.4byte	.LASF1
 1182 0033 02       		.uleb128 0x2
 1183 0034 02       		.byte	0x2
 1184 0035 05       		.byte	0x5
ARM GAS  C:\Users\LOCALA~1\AppData\Local\Temp\ccr8DDS5.s 			page 26


 1185 0036 EF010000 		.4byte	.LASF2
 1186 003a 02       		.uleb128 0x2
 1187 003b 02       		.byte	0x2
 1188 003c 07       		.byte	0x7
 1189 003d 2A000000 		.4byte	.LASF3
 1190 0041 02       		.uleb128 0x2
 1191 0042 04       		.byte	0x4
 1192 0043 05       		.byte	0x5
 1193 0044 06020000 		.4byte	.LASF4
 1194 0048 02       		.uleb128 0x2
 1195 0049 04       		.byte	0x4
 1196 004a 07       		.byte	0x7
 1197 004b A8000000 		.4byte	.LASF5
 1198 004f 02       		.uleb128 0x2
 1199 0050 08       		.byte	0x8
 1200 0051 05       		.byte	0x5
 1201 0052 C9010000 		.4byte	.LASF6
 1202 0056 02       		.uleb128 0x2
 1203 0057 08       		.byte	0x8
 1204 0058 07       		.byte	0x7
 1205 0059 94010000 		.4byte	.LASF7
 1206 005d 03       		.uleb128 0x3
 1207 005e 04       		.byte	0x4
 1208 005f 05       		.byte	0x5
 1209 0060 696E7400 		.ascii	"int\000"
 1210 0064 02       		.uleb128 0x2
 1211 0065 04       		.byte	0x4
 1212 0066 07       		.byte	0x7
 1213 0067 87010000 		.4byte	.LASF8
 1214 006b 04       		.uleb128 0x4
 1215 006c 00020000 		.4byte	.LASF9
 1216 0070 02       		.byte	0x2
 1217 0071 D201     		.2byte	0x1d2
 1218 0073 2C000000 		.4byte	0x2c
 1219 0077 04       		.uleb128 0x4
 1220 0078 70010000 		.4byte	.LASF10
 1221 007c 02       		.byte	0x2
 1222 007d D401     		.2byte	0x1d4
 1223 007f 48000000 		.4byte	0x48
 1224 0083 02       		.uleb128 0x2
 1225 0084 04       		.byte	0x4
 1226 0085 04       		.byte	0x4
 1227 0086 61000000 		.4byte	.LASF11
 1228 008a 02       		.uleb128 0x2
 1229 008b 08       		.byte	0x8
 1230 008c 04       		.byte	0x4
 1231 008d 5C010000 		.4byte	.LASF12
 1232 0091 02       		.uleb128 0x2
 1233 0092 01       		.byte	0x1
 1234 0093 08       		.byte	0x8
 1235 0094 DE010000 		.4byte	.LASF13
 1236 0098 05       		.uleb128 0x5
 1237 0099 77000000 		.4byte	0x77
 1238 009d 02       		.uleb128 0x2
 1239 009e 08       		.byte	0x8
 1240 009f 04       		.byte	0x4
 1241 00a0 2A020000 		.4byte	.LASF14
ARM GAS  C:\Users\LOCALA~1\AppData\Local\Temp\ccr8DDS5.s 			page 27


 1242 00a4 02       		.uleb128 0x2
 1243 00a5 04       		.byte	0x4
 1244 00a6 07       		.byte	0x7
 1245 00a7 C0010000 		.4byte	.LASF15
 1246 00ab 06       		.uleb128 0x6
 1247 00ac 04       		.byte	0x4
 1248 00ad 91000000 		.4byte	0x91
 1249 00b1 07       		.uleb128 0x7
 1250 00b2 46020000 		.4byte	.LASF16
 1251 00b6 01       		.byte	0x1
 1252 00b7 17       		.byte	0x17
 1253 00b8 00000000 		.4byte	.LFB35
 1254 00bc 2C000000 		.4byte	.LFE35-.LFB35
 1255 00c0 01       		.uleb128 0x1
 1256 00c1 9C       		.byte	0x9c
 1257 00c2 07       		.uleb128 0x7
 1258 00c3 77010000 		.4byte	.LASF17
 1259 00c7 01       		.byte	0x1
 1260 00c8 21       		.byte	0x21
 1261 00c9 00000000 		.4byte	.LFB36
 1262 00cd 2C000000 		.4byte	.LFE36-.LFB36
 1263 00d1 01       		.uleb128 0x1
 1264 00d2 9C       		.byte	0x9c
 1265 00d3 07       		.uleb128 0x7
 1266 00d4 90000000 		.4byte	.LASF18
 1267 00d8 01       		.byte	0x1
 1268 00d9 2B       		.byte	0x2b
 1269 00da 00000000 		.4byte	.LFB37
 1270 00de 2C000000 		.4byte	.LFE37-.LFB37
 1271 00e2 01       		.uleb128 0x1
 1272 00e3 9C       		.byte	0x9c
 1273 00e4 07       		.uleb128 0x7
 1274 00e5 00000000 		.4byte	.LASF19
 1275 00e9 01       		.byte	0x1
 1276 00ea 35       		.byte	0x35
 1277 00eb 00000000 		.4byte	.LFB38
 1278 00ef 2C000000 		.4byte	.LFE38-.LFB38
 1279 00f3 01       		.uleb128 0x1
 1280 00f4 9C       		.byte	0x9c
 1281 00f5 07       		.uleb128 0x7
 1282 00f6 AB010000 		.4byte	.LASF20
 1283 00fa 01       		.byte	0x1
 1284 00fb 3F       		.byte	0x3f
 1285 00fc 00000000 		.4byte	.LFB39
 1286 0100 2C000000 		.4byte	.LFE39-.LFB39
 1287 0104 01       		.uleb128 0x1
 1288 0105 9C       		.byte	0x9c
 1289 0106 07       		.uleb128 0x7
 1290 0107 36020000 		.4byte	.LASF21
 1291 010b 01       		.byte	0x1
 1292 010c 49       		.byte	0x49
 1293 010d 00000000 		.4byte	.LFB40
 1294 0111 2C000000 		.4byte	.LFE40-.LFB40
 1295 0115 01       		.uleb128 0x1
 1296 0116 9C       		.byte	0x9c
 1297 0117 08       		.uleb128 0x8
 1298 0118 63010000 		.4byte	.LASF31
ARM GAS  C:\Users\LOCALA~1\AppData\Local\Temp\ccr8DDS5.s 			page 28


 1299 011c 01       		.byte	0x1
 1300 011d 53       		.byte	0x53
 1301 011e 5D000000 		.4byte	0x5d
 1302 0122 00000000 		.4byte	.LFB41
 1303 0126 28040000 		.4byte	.LFE41-.LFB41
 1304 012a 01       		.uleb128 0x1
 1305 012b 9C       		.byte	0x9c
 1306 012c B0010000 		.4byte	0x1b0
 1307 0130 09       		.uleb128 0x9
 1308 0131 BB010000 		.4byte	.LASF22
 1309 0135 01       		.byte	0x1
 1310 0136 55       		.byte	0x55
 1311 0137 B0010000 		.4byte	0x1b0
 1312 013b 03       		.uleb128 0x3
 1313 013c 91       		.byte	0x91
 1314 013d BC7F     		.sleb128 -68
 1315 013f 09       		.uleb128 0x9
 1316 0140 F9010000 		.4byte	.LASF23
 1317 0144 01       		.byte	0x1
 1318 0145 56       		.byte	0x56
 1319 0146 C0010000 		.4byte	0x1c0
 1320 014a 03       		.uleb128 0x3
 1321 014b 91       		.byte	0x91
 1322 014c BC7E     		.sleb128 -196
 1323 014e 09       		.uleb128 0x9
 1324 014f 44000000 		.4byte	.LASF24
 1325 0153 01       		.byte	0x1
 1326 0154 57       		.byte	0x57
 1327 0155 77000000 		.4byte	0x77
 1328 0159 02       		.uleb128 0x2
 1329 015a 91       		.byte	0x91
 1330 015b 64       		.sleb128 -28
 1331 015c 0A       		.uleb128 0xa
 1332 015d 6900     		.ascii	"i\000"
 1333 015f 01       		.byte	0x1
 1334 0160 57       		.byte	0x57
 1335 0161 77000000 		.4byte	0x77
 1336 0165 02       		.uleb128 0x2
 1337 0166 91       		.byte	0x91
 1338 0167 60       		.sleb128 -32
 1339 0168 09       		.uleb128 0x9
 1340 0169 55010000 		.4byte	.LASF25
 1341 016d 01       		.byte	0x1
 1342 016e 58       		.byte	0x58
 1343 016f D0010000 		.4byte	0x1d0
 1344 0173 02       		.uleb128 0x2
 1345 0174 91       		.byte	0x91
 1346 0175 5F       		.sleb128 -33
 1347 0176 09       		.uleb128 0x9
 1348 0177 A0000000 		.4byte	.LASF26
 1349 017b 01       		.byte	0x1
 1350 017c 59       		.byte	0x59
 1351 017d D0010000 		.4byte	0x1d0
 1352 0181 02       		.uleb128 0x2
 1353 0182 91       		.byte	0x91
 1354 0183 5E       		.sleb128 -34
 1355 0184 09       		.uleb128 0x9
ARM GAS  C:\Users\LOCALA~1\AppData\Local\Temp\ccr8DDS5.s 			page 29


 1356 0185 BA000000 		.4byte	.LASF27
 1357 0189 01       		.byte	0x1
 1358 018a 5B       		.byte	0x5b
 1359 018b D7010000 		.4byte	0x1d7
 1360 018f 02       		.uleb128 0x2
 1361 0190 91       		.byte	0x91
 1362 0191 54       		.sleb128 -44
 1363 0192 09       		.uleb128 0x9
 1364 0193 67000000 		.4byte	.LASF28
 1365 0197 01       		.byte	0x1
 1366 0198 5C       		.byte	0x5c
 1367 0199 DC010000 		.4byte	0x1dc
 1368 019d 03       		.uleb128 0x3
 1369 019e 91       		.byte	0x91
 1370 019f 4C       		.sleb128 -52
 1371 01a0 06       		.byte	0x6
 1372 01a1 09       		.uleb128 0x9
 1373 01a2 10000000 		.4byte	.LASF29
 1374 01a6 01       		.byte	0x1
 1375 01a7 5D       		.byte	0x5d
 1376 01a8 AB000000 		.4byte	0xab
 1377 01ac 02       		.uleb128 0x2
 1378 01ad 91       		.byte	0x91
 1379 01ae 58       		.sleb128 -40
 1380 01af 00       		.byte	0
 1381 01b0 0B       		.uleb128 0xb
 1382 01b1 91000000 		.4byte	0x91
 1383 01b5 C0010000 		.4byte	0x1c0
 1384 01b9 0C       		.uleb128 0xc
 1385 01ba A4000000 		.4byte	0xa4
 1386 01be 0F       		.byte	0xf
 1387 01bf 00       		.byte	0
 1388 01c0 0B       		.uleb128 0xb
 1389 01c1 91000000 		.4byte	0x91
 1390 01c5 D0010000 		.4byte	0x1d0
 1391 01c9 0C       		.uleb128 0xc
 1392 01ca A4000000 		.4byte	0xa4
 1393 01ce 7F       		.byte	0x7f
 1394 01cf 00       		.byte	0
 1395 01d0 02       		.uleb128 0x2
 1396 01d1 01       		.byte	0x1
 1397 01d2 02       		.byte	0x2
 1398 01d3 56020000 		.4byte	.LASF30
 1399 01d7 0D       		.uleb128 0xd
 1400 01d8 5D000000 		.4byte	0x5d
 1401 01dc 0B       		.uleb128 0xb
 1402 01dd 91000000 		.4byte	0x91
 1403 01e1 EF010000 		.4byte	0x1ef
 1404 01e5 0E       		.uleb128 0xe
 1405 01e6 A4000000 		.4byte	0xa4
 1406 01ea 03       		.uleb128 0x3
 1407 01eb 91       		.byte	0x91
 1408 01ec 50       		.sleb128 -48
 1409 01ed 06       		.byte	0x6
 1410 01ee 00       		.byte	0
 1411 01ef 0F       		.uleb128 0xf
 1412 01f0 1D000000 		.4byte	.LASF32
ARM GAS  C:\Users\LOCALA~1\AppData\Local\Temp\ccr8DDS5.s 			page 30


 1413 01f4 01       		.byte	0x1
 1414 01f5 C1       		.byte	0xc1
 1415 01f6 00000000 		.4byte	.LFB42
 1416 01fa 44010000 		.4byte	.LFE42-.LFB42
 1417 01fe 01       		.uleb128 0x1
 1418 01ff 9C       		.byte	0x9c
 1419 0200 2F020000 		.4byte	0x22f
 1420 0204 10       		.uleb128 0x10
 1421 0205 E3010000 		.4byte	.LASF33
 1422 0209 01       		.byte	0x1
 1423 020a C1       		.byte	0xc1
 1424 020b 6B000000 		.4byte	0x6b
 1425 020f 02       		.uleb128 0x2
 1426 0210 91       		.byte	0x91
 1427 0211 77       		.sleb128 -9
 1428 0212 10       		.uleb128 0x10
 1429 0213 F9010000 		.4byte	.LASF23
 1430 0217 01       		.byte	0x1
 1431 0218 C1       		.byte	0xc1
 1432 0219 AB000000 		.4byte	0xab
 1433 021d 02       		.uleb128 0x2
 1434 021e 91       		.byte	0x91
 1435 021f 70       		.sleb128 -16
 1436 0220 10       		.uleb128 0x10
 1437 0221 BB010000 		.4byte	.LASF22
 1438 0225 01       		.byte	0x1
 1439 0226 C1       		.byte	0xc1
 1440 0227 AB000000 		.4byte	0xab
 1441 022b 02       		.uleb128 0x2
 1442 022c 91       		.byte	0x91
 1443 022d 6C       		.sleb128 -20
 1444 022e 00       		.byte	0
 1445 022f 11       		.uleb128 0x11
 1446 0230 4E000000 		.4byte	.LASF34
 1447 0234 01       		.byte	0x1
 1448 0235 DB       		.byte	0xdb
 1449 0236 00000000 		.4byte	.LFB43
 1450 023a 18000000 		.4byte	.LFE43-.LFB43
 1451 023e 01       		.uleb128 0x1
 1452 023f 9C       		.byte	0x9c
 1453 0240 12       		.uleb128 0x12
 1454 0241 68010000 		.4byte	.LASF35
 1455 0245 01       		.byte	0x1
 1456 0246 0E       		.byte	0xe
 1457 0247 77000000 		.4byte	0x77
 1458 024b 05       		.uleb128 0x5
 1459 024c 03       		.byte	0x3
 1460 024d 00000000 		.4byte	msCount
 1461 0251 0B       		.uleb128 0xb
 1462 0252 98000000 		.4byte	0x98
 1463 0256 61020000 		.4byte	0x261
 1464 025a 0C       		.uleb128 0xc
 1465 025b A4000000 		.4byte	0xa4
 1466 025f 05       		.byte	0x5
 1467 0260 00       		.byte	0
 1468 0261 12       		.uleb128 0x12
 1469 0262 7C000000 		.4byte	.LASF36
ARM GAS  C:\Users\LOCALA~1\AppData\Local\Temp\ccr8DDS5.s 			page 31


 1470 0266 01       		.byte	0x1
 1471 0267 0F       		.byte	0xf
 1472 0268 72020000 		.4byte	0x272
 1473 026c 05       		.uleb128 0x5
 1474 026d 03       		.byte	0x3
 1475 026e 00000000 		.4byte	intSW
 1476 0272 05       		.uleb128 0x5
 1477 0273 51020000 		.4byte	0x251
 1478 0277 0B       		.uleb128 0xb
 1479 0278 87020000 		.4byte	0x287
 1480 027c 87020000 		.4byte	0x287
 1481 0280 0C       		.uleb128 0xc
 1482 0281 A4000000 		.4byte	0xa4
 1483 0285 05       		.byte	0x5
 1484 0286 00       		.byte	0
 1485 0287 05       		.uleb128 0x5
 1486 0288 D0010000 		.4byte	0x1d0
 1487 028c 12       		.uleb128 0x12
 1488 028d 49000000 		.4byte	.LASF37
 1489 0291 01       		.byte	0x1
 1490 0292 10       		.byte	0x10
 1491 0293 9D020000 		.4byte	0x29d
 1492 0297 05       		.uleb128 0x5
 1493 0298 03       		.byte	0x3
 1494 0299 00000000 		.4byte	boSW
 1495 029d 05       		.uleb128 0x5
 1496 029e 77020000 		.4byte	0x277
 1497 02a2 12       		.uleb128 0x12
 1498 02a3 3D000000 		.4byte	.LASF38
 1499 02a7 01       		.byte	0x1
 1500 02a8 11       		.byte	0x11
 1501 02a9 B3020000 		.4byte	0x2b3
 1502 02ad 05       		.uleb128 0x5
 1503 02ae 03       		.byte	0x3
 1504 02af 00000000 		.4byte	boUART
 1505 02b3 05       		.uleb128 0x5
 1506 02b4 77020000 		.4byte	0x277
 1507 02b8 00       		.byte	0
 1508              		.section	.debug_abbrev,"",%progbits
 1509              	.Ldebug_abbrev0:
 1510 0000 01       		.uleb128 0x1
 1511 0001 11       		.uleb128 0x11
 1512 0002 01       		.byte	0x1
 1513 0003 25       		.uleb128 0x25
 1514 0004 0E       		.uleb128 0xe
 1515 0005 13       		.uleb128 0x13
 1516 0006 0B       		.uleb128 0xb
 1517 0007 03       		.uleb128 0x3
 1518 0008 0E       		.uleb128 0xe
 1519 0009 1B       		.uleb128 0x1b
 1520 000a 0E       		.uleb128 0xe
 1521 000b 55       		.uleb128 0x55
 1522 000c 17       		.uleb128 0x17
 1523 000d 11       		.uleb128 0x11
 1524 000e 01       		.uleb128 0x1
 1525 000f 10       		.uleb128 0x10
 1526 0010 17       		.uleb128 0x17
ARM GAS  C:\Users\LOCALA~1\AppData\Local\Temp\ccr8DDS5.s 			page 32


 1527 0011 00       		.byte	0
 1528 0012 00       		.byte	0
 1529 0013 02       		.uleb128 0x2
 1530 0014 24       		.uleb128 0x24
 1531 0015 00       		.byte	0
 1532 0016 0B       		.uleb128 0xb
 1533 0017 0B       		.uleb128 0xb
 1534 0018 3E       		.uleb128 0x3e
 1535 0019 0B       		.uleb128 0xb
 1536 001a 03       		.uleb128 0x3
 1537 001b 0E       		.uleb128 0xe
 1538 001c 00       		.byte	0
 1539 001d 00       		.byte	0
 1540 001e 03       		.uleb128 0x3
 1541 001f 24       		.uleb128 0x24
 1542 0020 00       		.byte	0
 1543 0021 0B       		.uleb128 0xb
 1544 0022 0B       		.uleb128 0xb
 1545 0023 3E       		.uleb128 0x3e
 1546 0024 0B       		.uleb128 0xb
 1547 0025 03       		.uleb128 0x3
 1548 0026 08       		.uleb128 0x8
 1549 0027 00       		.byte	0
 1550 0028 00       		.byte	0
 1551 0029 04       		.uleb128 0x4
 1552 002a 16       		.uleb128 0x16
 1553 002b 00       		.byte	0
 1554 002c 03       		.uleb128 0x3
 1555 002d 0E       		.uleb128 0xe
 1556 002e 3A       		.uleb128 0x3a
 1557 002f 0B       		.uleb128 0xb
 1558 0030 3B       		.uleb128 0x3b
 1559 0031 05       		.uleb128 0x5
 1560 0032 49       		.uleb128 0x49
 1561 0033 13       		.uleb128 0x13
 1562 0034 00       		.byte	0
 1563 0035 00       		.byte	0
 1564 0036 05       		.uleb128 0x5
 1565 0037 35       		.uleb128 0x35
 1566 0038 00       		.byte	0
 1567 0039 49       		.uleb128 0x49
 1568 003a 13       		.uleb128 0x13
 1569 003b 00       		.byte	0
 1570 003c 00       		.byte	0
 1571 003d 06       		.uleb128 0x6
 1572 003e 0F       		.uleb128 0xf
 1573 003f 00       		.byte	0
 1574 0040 0B       		.uleb128 0xb
 1575 0041 0B       		.uleb128 0xb
 1576 0042 49       		.uleb128 0x49
 1577 0043 13       		.uleb128 0x13
 1578 0044 00       		.byte	0
 1579 0045 00       		.byte	0
 1580 0046 07       		.uleb128 0x7
 1581 0047 2E       		.uleb128 0x2e
 1582 0048 00       		.byte	0
 1583 0049 3F       		.uleb128 0x3f
ARM GAS  C:\Users\LOCALA~1\AppData\Local\Temp\ccr8DDS5.s 			page 33


 1584 004a 19       		.uleb128 0x19
 1585 004b 03       		.uleb128 0x3
 1586 004c 0E       		.uleb128 0xe
 1587 004d 3A       		.uleb128 0x3a
 1588 004e 0B       		.uleb128 0xb
 1589 004f 3B       		.uleb128 0x3b
 1590 0050 0B       		.uleb128 0xb
 1591 0051 27       		.uleb128 0x27
 1592 0052 19       		.uleb128 0x19
 1593 0053 11       		.uleb128 0x11
 1594 0054 01       		.uleb128 0x1
 1595 0055 12       		.uleb128 0x12
 1596 0056 06       		.uleb128 0x6
 1597 0057 40       		.uleb128 0x40
 1598 0058 18       		.uleb128 0x18
 1599 0059 9642     		.uleb128 0x2116
 1600 005b 19       		.uleb128 0x19
 1601 005c 00       		.byte	0
 1602 005d 00       		.byte	0
 1603 005e 08       		.uleb128 0x8
 1604 005f 2E       		.uleb128 0x2e
 1605 0060 01       		.byte	0x1
 1606 0061 3F       		.uleb128 0x3f
 1607 0062 19       		.uleb128 0x19
 1608 0063 03       		.uleb128 0x3
 1609 0064 0E       		.uleb128 0xe
 1610 0065 3A       		.uleb128 0x3a
 1611 0066 0B       		.uleb128 0xb
 1612 0067 3B       		.uleb128 0x3b
 1613 0068 0B       		.uleb128 0xb
 1614 0069 49       		.uleb128 0x49
 1615 006a 13       		.uleb128 0x13
 1616 006b 11       		.uleb128 0x11
 1617 006c 01       		.uleb128 0x1
 1618 006d 12       		.uleb128 0x12
 1619 006e 06       		.uleb128 0x6
 1620 006f 40       		.uleb128 0x40
 1621 0070 18       		.uleb128 0x18
 1622 0071 9642     		.uleb128 0x2116
 1623 0073 19       		.uleb128 0x19
 1624 0074 01       		.uleb128 0x1
 1625 0075 13       		.uleb128 0x13
 1626 0076 00       		.byte	0
 1627 0077 00       		.byte	0
 1628 0078 09       		.uleb128 0x9
 1629 0079 34       		.uleb128 0x34
 1630 007a 00       		.byte	0
 1631 007b 03       		.uleb128 0x3
 1632 007c 0E       		.uleb128 0xe
 1633 007d 3A       		.uleb128 0x3a
 1634 007e 0B       		.uleb128 0xb
 1635 007f 3B       		.uleb128 0x3b
 1636 0080 0B       		.uleb128 0xb
 1637 0081 49       		.uleb128 0x49
 1638 0082 13       		.uleb128 0x13
 1639 0083 02       		.uleb128 0x2
 1640 0084 18       		.uleb128 0x18
ARM GAS  C:\Users\LOCALA~1\AppData\Local\Temp\ccr8DDS5.s 			page 34


 1641 0085 00       		.byte	0
 1642 0086 00       		.byte	0
 1643 0087 0A       		.uleb128 0xa
 1644 0088 34       		.uleb128 0x34
 1645 0089 00       		.byte	0
 1646 008a 03       		.uleb128 0x3
 1647 008b 08       		.uleb128 0x8
 1648 008c 3A       		.uleb128 0x3a
 1649 008d 0B       		.uleb128 0xb
 1650 008e 3B       		.uleb128 0x3b
 1651 008f 0B       		.uleb128 0xb
 1652 0090 49       		.uleb128 0x49
 1653 0091 13       		.uleb128 0x13
 1654 0092 02       		.uleb128 0x2
 1655 0093 18       		.uleb128 0x18
 1656 0094 00       		.byte	0
 1657 0095 00       		.byte	0
 1658 0096 0B       		.uleb128 0xb
 1659 0097 01       		.uleb128 0x1
 1660 0098 01       		.byte	0x1
 1661 0099 49       		.uleb128 0x49
 1662 009a 13       		.uleb128 0x13
 1663 009b 01       		.uleb128 0x1
 1664 009c 13       		.uleb128 0x13
 1665 009d 00       		.byte	0
 1666 009e 00       		.byte	0
 1667 009f 0C       		.uleb128 0xc
 1668 00a0 21       		.uleb128 0x21
 1669 00a1 00       		.byte	0
 1670 00a2 49       		.uleb128 0x49
 1671 00a3 13       		.uleb128 0x13
 1672 00a4 2F       		.uleb128 0x2f
 1673 00a5 0B       		.uleb128 0xb
 1674 00a6 00       		.byte	0
 1675 00a7 00       		.byte	0
 1676 00a8 0D       		.uleb128 0xd
 1677 00a9 26       		.uleb128 0x26
 1678 00aa 00       		.byte	0
 1679 00ab 49       		.uleb128 0x49
 1680 00ac 13       		.uleb128 0x13
 1681 00ad 00       		.byte	0
 1682 00ae 00       		.byte	0
 1683 00af 0E       		.uleb128 0xe
 1684 00b0 21       		.uleb128 0x21
 1685 00b1 00       		.byte	0
 1686 00b2 49       		.uleb128 0x49
 1687 00b3 13       		.uleb128 0x13
 1688 00b4 2F       		.uleb128 0x2f
 1689 00b5 18       		.uleb128 0x18
 1690 00b6 00       		.byte	0
 1691 00b7 00       		.byte	0
 1692 00b8 0F       		.uleb128 0xf
 1693 00b9 2E       		.uleb128 0x2e
 1694 00ba 01       		.byte	0x1
 1695 00bb 3F       		.uleb128 0x3f
 1696 00bc 19       		.uleb128 0x19
 1697 00bd 03       		.uleb128 0x3
ARM GAS  C:\Users\LOCALA~1\AppData\Local\Temp\ccr8DDS5.s 			page 35


 1698 00be 0E       		.uleb128 0xe
 1699 00bf 3A       		.uleb128 0x3a
 1700 00c0 0B       		.uleb128 0xb
 1701 00c1 3B       		.uleb128 0x3b
 1702 00c2 0B       		.uleb128 0xb
 1703 00c3 27       		.uleb128 0x27
 1704 00c4 19       		.uleb128 0x19
 1705 00c5 11       		.uleb128 0x11
 1706 00c6 01       		.uleb128 0x1
 1707 00c7 12       		.uleb128 0x12
 1708 00c8 06       		.uleb128 0x6
 1709 00c9 40       		.uleb128 0x40
 1710 00ca 18       		.uleb128 0x18
 1711 00cb 9642     		.uleb128 0x2116
 1712 00cd 19       		.uleb128 0x19
 1713 00ce 01       		.uleb128 0x1
 1714 00cf 13       		.uleb128 0x13
 1715 00d0 00       		.byte	0
 1716 00d1 00       		.byte	0
 1717 00d2 10       		.uleb128 0x10
 1718 00d3 05       		.uleb128 0x5
 1719 00d4 00       		.byte	0
 1720 00d5 03       		.uleb128 0x3
 1721 00d6 0E       		.uleb128 0xe
 1722 00d7 3A       		.uleb128 0x3a
 1723 00d8 0B       		.uleb128 0xb
 1724 00d9 3B       		.uleb128 0x3b
 1725 00da 0B       		.uleb128 0xb
 1726 00db 49       		.uleb128 0x49
 1727 00dc 13       		.uleb128 0x13
 1728 00dd 02       		.uleb128 0x2
 1729 00de 18       		.uleb128 0x18
 1730 00df 00       		.byte	0
 1731 00e0 00       		.byte	0
 1732 00e1 11       		.uleb128 0x11
 1733 00e2 2E       		.uleb128 0x2e
 1734 00e3 00       		.byte	0
 1735 00e4 3F       		.uleb128 0x3f
 1736 00e5 19       		.uleb128 0x19
 1737 00e6 03       		.uleb128 0x3
 1738 00e7 0E       		.uleb128 0xe
 1739 00e8 3A       		.uleb128 0x3a
 1740 00e9 0B       		.uleb128 0xb
 1741 00ea 3B       		.uleb128 0x3b
 1742 00eb 0B       		.uleb128 0xb
 1743 00ec 27       		.uleb128 0x27
 1744 00ed 19       		.uleb128 0x19
 1745 00ee 11       		.uleb128 0x11
 1746 00ef 01       		.uleb128 0x1
 1747 00f0 12       		.uleb128 0x12
 1748 00f1 06       		.uleb128 0x6
 1749 00f2 40       		.uleb128 0x40
 1750 00f3 18       		.uleb128 0x18
 1751 00f4 9742     		.uleb128 0x2117
 1752 00f6 19       		.uleb128 0x19
 1753 00f7 00       		.byte	0
 1754 00f8 00       		.byte	0
ARM GAS  C:\Users\LOCALA~1\AppData\Local\Temp\ccr8DDS5.s 			page 36


 1755 00f9 12       		.uleb128 0x12
 1756 00fa 34       		.uleb128 0x34
 1757 00fb 00       		.byte	0
 1758 00fc 03       		.uleb128 0x3
 1759 00fd 0E       		.uleb128 0xe
 1760 00fe 3A       		.uleb128 0x3a
 1761 00ff 0B       		.uleb128 0xb
 1762 0100 3B       		.uleb128 0x3b
 1763 0101 0B       		.uleb128 0xb
 1764 0102 49       		.uleb128 0x49
 1765 0103 13       		.uleb128 0x13
 1766 0104 3F       		.uleb128 0x3f
 1767 0105 19       		.uleb128 0x19
 1768 0106 02       		.uleb128 0x2
 1769 0107 18       		.uleb128 0x18
 1770 0108 00       		.byte	0
 1771 0109 00       		.byte	0
 1772 010a 00       		.byte	0
 1773              		.section	.debug_aranges,"",%progbits
 1774 0000 5C000000 		.4byte	0x5c
 1775 0004 0200     		.2byte	0x2
 1776 0006 00000000 		.4byte	.Ldebug_info0
 1777 000a 04       		.byte	0x4
 1778 000b 00       		.byte	0
 1779 000c 0000     		.2byte	0
 1780 000e 0000     		.2byte	0
 1781 0010 00000000 		.4byte	.LFB35
 1782 0014 2C000000 		.4byte	.LFE35-.LFB35
 1783 0018 00000000 		.4byte	.LFB36
 1784 001c 2C000000 		.4byte	.LFE36-.LFB36
 1785 0020 00000000 		.4byte	.LFB37
 1786 0024 2C000000 		.4byte	.LFE37-.LFB37
 1787 0028 00000000 		.4byte	.LFB38
 1788 002c 2C000000 		.4byte	.LFE38-.LFB38
 1789 0030 00000000 		.4byte	.LFB39
 1790 0034 2C000000 		.4byte	.LFE39-.LFB39
 1791 0038 00000000 		.4byte	.LFB40
 1792 003c 2C000000 		.4byte	.LFE40-.LFB40
 1793 0040 00000000 		.4byte	.LFB41
 1794 0044 28040000 		.4byte	.LFE41-.LFB41
 1795 0048 00000000 		.4byte	.LFB42
 1796 004c 44010000 		.4byte	.LFE42-.LFB42
 1797 0050 00000000 		.4byte	.LFB43
 1798 0054 18000000 		.4byte	.LFE43-.LFB43
 1799 0058 00000000 		.4byte	0
 1800 005c 00000000 		.4byte	0
 1801              		.section	.debug_ranges,"",%progbits
 1802              	.Ldebug_ranges0:
 1803 0000 00000000 		.4byte	.LFB35
 1804 0004 2C000000 		.4byte	.LFE35
 1805 0008 00000000 		.4byte	.LFB36
 1806 000c 2C000000 		.4byte	.LFE36
 1807 0010 00000000 		.4byte	.LFB37
 1808 0014 2C000000 		.4byte	.LFE37
 1809 0018 00000000 		.4byte	.LFB38
 1810 001c 2C000000 		.4byte	.LFE38
 1811 0020 00000000 		.4byte	.LFB39
ARM GAS  C:\Users\LOCALA~1\AppData\Local\Temp\ccr8DDS5.s 			page 37


 1812 0024 2C000000 		.4byte	.LFE39
 1813 0028 00000000 		.4byte	.LFB40
 1814 002c 2C000000 		.4byte	.LFE40
 1815 0030 00000000 		.4byte	.LFB41
 1816 0034 28040000 		.4byte	.LFE41
 1817 0038 00000000 		.4byte	.LFB42
 1818 003c 44010000 		.4byte	.LFE42
 1819 0040 00000000 		.4byte	.LFB43
 1820 0044 18000000 		.4byte	.LFE43
 1821 0048 00000000 		.4byte	0
 1822 004c 00000000 		.4byte	0
 1823              		.section	.debug_line,"",%progbits
 1824              	.Ldebug_line0:
 1825 0000 80010000 		.section	.debug_str,"MS",%progbits,1
 1825      02004100 
 1825      00000201 
 1825      FB0E0D00 
 1825      01010101 
 1826              	.LASF19:
 1827 0000 4750494F 		.ascii	"GPIO3IsrHandler\000"
 1827      33497372 
 1827      48616E64 
 1827      6C657200 
 1828              	.LASF29:
 1829 0010 52785772 		.ascii	"RxWriteIndex\000"
 1829      69746549 
 1829      6E646578 
 1829      00
 1830              	.LASF32:
 1831 001d 48616E64 		.ascii	"HandleSwitch\000"
 1831      6C655377 
 1831      69746368 
 1831      00
 1832              	.LASF3:
 1833 002a 73686F72 		.ascii	"short unsigned int\000"
 1833      7420756E 
 1833      7369676E 
 1833      65642069 
 1833      6E7400
 1834              	.LASF38:
 1835 003d 626F5541 		.ascii	"boUART\000"
 1835      525400
 1836              	.LASF24:
 1837 0044 62797465 		.ascii	"byte\000"
 1837      00
 1838              	.LASF37:
 1839 0049 626F5357 		.ascii	"boSW\000"
 1839      00
 1840              	.LASF34:
 1841 004e 53797354 		.ascii	"SysTickISRCallback\000"
 1841      69636B49 
 1841      53524361 
 1841      6C6C6261 
 1841      636B00
 1842              	.LASF11:
 1843 0061 666C6F61 		.ascii	"float\000"
 1843      7400
ARM GAS  C:\Users\LOCALA~1\AppData\Local\Temp\ccr8DDS5.s 			page 38


 1844              	.LASF28:
 1845 0067 52784275 		.ascii	"RxBuffer\000"
 1845      66666572 
 1845      00
 1846              	.LASF0:
 1847 0070 7369676E 		.ascii	"signed char\000"
 1847      65642063 
 1847      68617200 
 1848              	.LASF36:
 1849 007c 696E7453 		.ascii	"intSW\000"
 1849      5700
 1850              	.LASF1:
 1851 0082 756E7369 		.ascii	"unsigned char\000"
 1851      676E6564 
 1851      20636861 
 1851      7200
 1852              	.LASF18:
 1853 0090 4750494F 		.ascii	"GPIO2IsrHandler\000"
 1853      32497372 
 1853      48616E64 
 1853      6C657200 
 1854              	.LASF26:
 1855 00a0 626F5374 		.ascii	"boStart\000"
 1855      61727400 
 1856              	.LASF5:
 1857 00a8 6C6F6E67 		.ascii	"long unsigned int\000"
 1857      20756E73 
 1857      69676E65 
 1857      6420696E 
 1857      7400
 1858              	.LASF27:
 1859 00ba 52784275 		.ascii	"RxBufferSize\000"
 1859      66666572 
 1859      53697A65 
 1859      00
 1860              	.LASF39:
 1861 00c7 474E5520 		.ascii	"GNU C11 5.4.1 20160609 (release) [ARM/embedded-5-br"
 1861      43313120 
 1861      352E342E 
 1861      31203230 
 1861      31363036 
 1862 00fa 616E6368 		.ascii	"anch revision 237715] -mcpu=cortex-m0 -mthumb -g -O"
 1862      20726576 
 1862      6973696F 
 1862      6E203233 
 1862      37373135 
 1863 012d 30202D66 		.ascii	"0 -ffunction-sections -ffat-lto-objects\000"
 1863      66756E63 
 1863      74696F6E 
 1863      2D736563 
 1863      74696F6E 
 1864              	.LASF25:
 1865 0155 626F4352 		.ascii	"boCRLF\000"
 1865      4C4600
 1866              	.LASF12:
 1867 015c 646F7562 		.ascii	"double\000"
 1867      6C6500
ARM GAS  C:\Users\LOCALA~1\AppData\Local\Temp\ccr8DDS5.s 			page 39


 1868              	.LASF31:
 1869 0163 6D61696E 		.ascii	"main\000"
 1869      00
 1870              	.LASF35:
 1871 0168 6D73436F 		.ascii	"msCount\000"
 1871      756E7400 
 1872              	.LASF10:
 1873 0170 75696E74 		.ascii	"uint32\000"
 1873      333200
 1874              	.LASF17:
 1875 0177 4750494F 		.ascii	"GPIO1IsrHandler\000"
 1875      31497372 
 1875      48616E64 
 1875      6C657200 
 1876              	.LASF8:
 1877 0187 756E7369 		.ascii	"unsigned int\000"
 1877      676E6564 
 1877      20696E74 
 1877      00
 1878              	.LASF7:
 1879 0194 6C6F6E67 		.ascii	"long long unsigned int\000"
 1879      206C6F6E 
 1879      6720756E 
 1879      7369676E 
 1879      65642069 
 1880              	.LASF20:
 1881 01ab 4750494F 		.ascii	"GPIO4IsrHandler\000"
 1881      34497372 
 1881      48616E64 
 1881      6C657200 
 1882              	.LASF22:
 1883 01bb 74696D65 		.ascii	"time\000"
 1883      00
 1884              	.LASF15:
 1885 01c0 73697A65 		.ascii	"sizetype\000"
 1885      74797065 
 1885      00
 1886              	.LASF6:
 1887 01c9 6C6F6E67 		.ascii	"long long int\000"
 1887      206C6F6E 
 1887      6720696E 
 1887      7400
 1888              	.LASF40:
 1889 01d7 6D61696E 		.ascii	"main.c\000"
 1889      2E6300
 1890              	.LASF13:
 1891 01de 63686172 		.ascii	"char\000"
 1891      00
 1892              	.LASF33:
 1893 01e3 73776974 		.ascii	"switchIndex\000"
 1893      6368496E 
 1893      64657800 
 1894              	.LASF2:
 1895 01ef 73686F72 		.ascii	"short int\000"
 1895      7420696E 
 1895      7400
 1896              	.LASF23:
ARM GAS  C:\Users\LOCALA~1\AppData\Local\Temp\ccr8DDS5.s 			page 40


 1897 01f9 62756666 		.ascii	"buffer\000"
 1897      657200
 1898              	.LASF9:
 1899 0200 75696E74 		.ascii	"uint8\000"
 1899      3800
 1900              	.LASF4:
 1901 0206 6C6F6E67 		.ascii	"long int\000"
 1901      20696E74 
 1901      00
 1902              	.LASF41:
 1903 020f 443A5C53 		.ascii	"D:\\SysTick_Example02.cydsn\000"
 1903      79735469 
 1903      636B5F45 
 1903      78616D70 
 1903      6C653032 
 1904              	.LASF14:
 1905 022a 6C6F6E67 		.ascii	"long double\000"
 1905      20646F75 
 1905      626C6500 
 1906              	.LASF21:
 1907 0236 4750494F 		.ascii	"GPIO5IsrHandler\000"
 1907      35497372 
 1907      48616E64 
 1907      6C657200 
 1908              	.LASF16:
 1909 0246 4750494F 		.ascii	"GPIO0IsrHandler\000"
 1909      30497372 
 1909      48616E64 
 1909      6C657200 
 1910              	.LASF30:
 1911 0256 5F426F6F 		.ascii	"_Bool\000"
 1911      6C00
 1912              		.ident	"GCC: (GNU Tools for ARM Embedded Processors) 5.4.1 20160609 (release) [ARM/embedded-5-bran
